
/home/long/clone/ysyx-games/2048/build/2048-riscv32-nemu.elf:     file format elf32-littleriscv


Disassembly of section .text:

80000000 <_start>:
80000000:	00000413          	li	s0,0
80000004:	0000c117          	auipc	sp,0xc
80000008:	ffc10113          	addi	sp,sp,-4 # 8000c000 <_end>
8000000c:	258010ef          	jal	ra,80001264 <_trm_init>

80000010 <new_block.part.0>:
80000010:	ff010113          	addi	sp,sp,-16
80000014:	00112623          	sw	ra,12(sp)
80000018:	00812423          	sw	s0,8(sp)
8000001c:	00912223          	sw	s1,4(sp)
80000020:	00003417          	auipc	s0,0x3
80000024:	3b040413          	addi	s0,s0,944 # 800033d0 <free_blocks>
80000028:	5a5010ef          	jal	ra,80001dcc <rand>
8000002c:	00042783          	lw	a5,0(s0)
80000030:	02f564b3          	rem	s1,a0,a5
80000034:	599010ef          	jal	ra,80001dcc <rand>
80000038:	00a00793          	li	a5,10
8000003c:	00003e17          	auipc	t3,0x3
80000040:	39ce0e13          	addi	t3,t3,924 # 800033d8 <blocks>
80000044:	000e0313          	mv	t1,t3
80000048:	00000613          	li	a2,0
8000004c:	00000813          	li	a6,0
80000050:	00400593          	li	a1,4
80000054:	02f568b3          	rem	a7,a0,a5
80000058:	0018b893          	seqz	a7,a7
8000005c:	00189893          	slli	a7,a7,0x1
80000060:	00288893          	addi	a7,a7,2
80000064:	00030793          	mv	a5,t1
80000068:	00000713          	li	a4,0
8000006c:	0007a683          	lw	a3,0(a5)
80000070:	00478793          	addi	a5,a5,4
80000074:	00069663          	bnez	a3,80000080 <new_block.part.0+0x70>
80000078:	02c48863          	beq	s1,a2,800000a8 <new_block.part.0+0x98>
8000007c:	00160613          	addi	a2,a2,1
80000080:	00170713          	addi	a4,a4,1
80000084:	feb714e3          	bne	a4,a1,8000006c <new_block.part.0+0x5c>
80000088:	00180813          	addi	a6,a6,1
8000008c:	01030313          	addi	t1,t1,16
80000090:	fcb81ae3          	bne	a6,a1,80000064 <new_block.part.0+0x54>
80000094:	00c12083          	lw	ra,12(sp)
80000098:	00812403          	lw	s0,8(sp)
8000009c:	00412483          	lw	s1,4(sp)
800000a0:	01010113          	addi	sp,sp,16
800000a4:	00008067          	ret
800000a8:	00042683          	lw	a3,0(s0)
800000ac:	00281793          	slli	a5,a6,0x2
800000b0:	00e787b3          	add	a5,a5,a4
800000b4:	00279793          	slli	a5,a5,0x2
800000b8:	00fe0e33          	add	t3,t3,a5
800000bc:	fff68793          	addi	a5,a3,-1
800000c0:	00c12083          	lw	ra,12(sp)
800000c4:	00f42023          	sw	a5,0(s0)
800000c8:	00812403          	lw	s0,8(sp)
800000cc:	011e2023          	sw	a7,0(t3)
800000d0:	00412483          	lw	s1,4(sp)
800000d4:	01010113          	addi	sp,sp,16
800000d8:	00008067          	ret

800000dc <draw_char>:
800000dc:	fd010113          	addi	sp,sp,-48
800000e0:	fd060793          	addi	a5,a2,-48
800000e4:	02112623          	sw	ra,44(sp)
800000e8:	0ff7f793          	zext.b	a5,a5
800000ec:	00900713          	li	a4,9
800000f0:	00050293          	mv	t0,a0
800000f4:	00058f93          	mv	t6,a1
800000f8:	0af76263          	bltu	a4,a5,8000019c <draw_char+0xc0>
800000fc:	00779793          	slli	a5,a5,0x7
80000100:	00003e97          	auipc	t4,0x3
80000104:	850e8e93          	addi	t4,t4,-1968 # 80002950 <font>
80000108:	00777337          	lui	t1,0x777
8000010c:	00003897          	auipc	a7,0x3
80000110:	32c88893          	addi	a7,a7,812 # 80003438 <char_buf.2+0x20>
80000114:	00003f17          	auipc	t5,0x3
80000118:	524f0f13          	addi	t5,t5,1316 # 80003638 <key_info+0x20>
8000011c:	00000e13          	li	t3,0
80000120:	00fe8eb3          	add	t4,t4,a5
80000124:	e6530313          	addi	t1,t1,-411 # 776e65 <_entry_offset+0x776e65>
80000128:	01ce8733          	add	a4,t4,t3
8000012c:	fe088793          	addi	a5,a7,-32
80000130:	00074803          	lbu	a6,0(a4)
80000134:	00068613          	mv	a2,a3
80000138:	00080463          	beqz	a6,80000140 <draw_char+0x64>
8000013c:	00030613          	mv	a2,t1
80000140:	00c7a023          	sw	a2,0(a5)
80000144:	00478793          	addi	a5,a5,4
80000148:	00170713          	addi	a4,a4,1
8000014c:	ff1792e3          	bne	a5,a7,80000130 <draw_char+0x54>
80000150:	02078893          	addi	a7,a5,32
80000154:	008e0e13          	addi	t3,t3,8
80000158:	fde898e3          	bne	a7,t5,80000128 <draw_char+0x4c>
8000015c:	00003797          	auipc	a5,0x3
80000160:	2bc78793          	addi	a5,a5,700 # 80003418 <char_buf.2>
80000164:	00f12823          	sw	a5,16(sp)
80000168:	00800793          	li	a5,8
8000016c:	00f12a23          	sw	a5,20(sp)
80000170:	00810593          	addi	a1,sp,8
80000174:	01000793          	li	a5,16
80000178:	00b00513          	li	a0,11
8000017c:	00512423          	sw	t0,8(sp)
80000180:	01f12623          	sw	t6,12(sp)
80000184:	00f12c23          	sw	a5,24(sp)
80000188:	00010e23          	sb	zero,28(sp)
8000018c:	204010ef          	jal	ra,80001390 <ioe_write>
80000190:	02c12083          	lw	ra,44(sp)
80000194:	03010113          	addi	sp,sp,48
80000198:	00008067          	ret
8000019c:	03a00793          	li	a5,58
800001a0:	02f60c63          	beq	a2,a5,800001d8 <draw_char+0xfc>
800001a4:	fad60793          	addi	a5,a2,-83
800001a8:	0ff7f793          	zext.b	a5,a5
800001ac:	01f00713          	li	a4,31
800001b0:	02f76063          	bltu	a4,a5,800001d0 <draw_char+0xf4>
800001b4:	00002717          	auipc	a4,0x2
800001b8:	41c70713          	addi	a4,a4,1052 # 800025d0 <_etext>
800001bc:	00279793          	slli	a5,a5,0x2
800001c0:	00e787b3          	add	a5,a5,a4
800001c4:	0007a783          	lw	a5,0(a5)
800001c8:	00e787b3          	add	a5,a5,a4
800001cc:	00078067          	jr	a5
800001d0:	00000793          	li	a5,0
800001d4:	f2dff06f          	j	80000100 <draw_char+0x24>
800001d8:	78000793          	li	a5,1920
800001dc:	f25ff06f          	j	80000100 <draw_char+0x24>
800001e0:	70000793          	li	a5,1792
800001e4:	f1dff06f          	j	80000100 <draw_char+0x24>
800001e8:	60000793          	li	a5,1536
800001ec:	f15ff06f          	j	80000100 <draw_char+0x24>
800001f0:	68000793          	li	a5,1664
800001f4:	f0dff06f          	j	80000100 <draw_char+0x24>
800001f8:	58000793          	li	a5,1408
800001fc:	f05ff06f          	j	80000100 <draw_char+0x24>
80000200:	50000793          	li	a5,1280
80000204:	efdff06f          	j	80000100 <draw_char+0x24>

80000208 <draw_number>:
80000208:	fd010113          	addi	sp,sp,-48
8000020c:	03212023          	sw	s2,32(sp)
80000210:	00060913          	mv	s2,a2
80000214:	02912223          	sw	s1,36(sp)
80000218:	01412c23          	sw	s4,24(sp)
8000021c:	00068493          	mv	s1,a3
80000220:	01512a23          	sw	s5,20(sp)
80000224:	00090693          	mv	a3,s2
80000228:	00050a93          	mv	s5,a0
8000022c:	00058a13          	mv	s4,a1
80000230:	00002617          	auipc	a2,0x2
80000234:	42060613          	addi	a2,a2,1056 # 80002650 <_etext+0x80>
80000238:	00a00593          	li	a1,10
8000023c:	00410513          	addi	a0,sp,4
80000240:	02112623          	sw	ra,44(sp)
80000244:	02812423          	sw	s0,40(sp)
80000248:	01312e23          	sw	s3,28(sp)
8000024c:	00070413          	mv	s0,a4
80000250:	161010ef          	jal	ra,80001bb0 <snprintf>
80000254:	00410513          	addi	a0,sp,4
80000258:	6f9010ef          	jal	ra,80002150 <strlen>
8000025c:	00351793          	slli	a5,a0,0x3
80000260:	40f486b3          	sub	a3,s1,a5
80000264:	ff040713          	addi	a4,s0,-16
80000268:	01f6d493          	srli	s1,a3,0x1f
8000026c:	01f75993          	srli	s3,a4,0x1f
80000270:	00d484b3          	add	s1,s1,a3
80000274:	00e989b3          	add	s3,s3,a4
80000278:	4014d493          	srai	s1,s1,0x1
8000027c:	4019d993          	srai	s3,s3,0x1
80000280:	04000793          	li	a5,64
80000284:	00050813          	mv	a6,a0
80000288:	015484b3          	add	s1,s1,s5
8000028c:	014989b3          	add	s3,s3,s4
80000290:	12f90463          	beq	s2,a5,800003b8 <draw_number+0x1b0>
80000294:	0927da63          	bge	a5,s2,80000328 <draw_number+0x120>
80000298:	20000793          	li	a5,512
8000029c:	10f90863          	beq	s2,a5,800003ac <draw_number+0x1a4>
800002a0:	0727d663          	bge	a5,s2,8000030c <draw_number+0x104>
800002a4:	40000793          	li	a5,1024
800002a8:	0cf90463          	beq	s2,a5,80000370 <draw_number+0x168>
800002ac:	80090793          	addi	a5,s2,-2048
800002b0:	0a079463          	bnez	a5,80000358 <draw_number+0x150>
800002b4:	00edc937          	lui	s2,0xedc
800002b8:	22e90913          	addi	s2,s2,558 # edc22e <_entry_offset+0xedc22e>
800002bc:	00410413          	addi	s0,sp,4
800002c0:	01040a33          	add	s4,s0,a6
800002c4:	03005263          	blez	a6,800002e8 <draw_number+0xe0>
800002c8:	00044603          	lbu	a2,0(s0)
800002cc:	00048513          	mv	a0,s1
800002d0:	00090693          	mv	a3,s2
800002d4:	00098593          	mv	a1,s3
800002d8:	00140413          	addi	s0,s0,1
800002dc:	e01ff0ef          	jal	ra,800000dc <draw_char>
800002e0:	00848493          	addi	s1,s1,8
800002e4:	ff4412e3          	bne	s0,s4,800002c8 <draw_number+0xc0>
800002e8:	02c12083          	lw	ra,44(sp)
800002ec:	02812403          	lw	s0,40(sp)
800002f0:	02412483          	lw	s1,36(sp)
800002f4:	02012903          	lw	s2,32(sp)
800002f8:	01c12983          	lw	s3,28(sp)
800002fc:	01812a03          	lw	s4,24(sp)
80000300:	01412a83          	lw	s5,20(sp)
80000304:	03010113          	addi	sp,sp,48
80000308:	00008067          	ret
8000030c:	08000793          	li	a5,128
80000310:	04f90a63          	beq	s2,a5,80000364 <draw_number+0x15c>
80000314:	10000793          	li	a5,256
80000318:	04f91063          	bne	s2,a5,80000358 <draw_number+0x150>
8000031c:	00edd937          	lui	s2,0xedd
80000320:	c6190913          	addi	s2,s2,-927 # edcc61 <_entry_offset+0xedcc61>
80000324:	f99ff06f          	j	800002bc <draw_number+0xb4>
80000328:	ffe90793          	addi	a5,s2,-2
8000032c:	01e00713          	li	a4,30
80000330:	02f76463          	bltu	a4,a5,80000358 <draw_number+0x150>
80000334:	02000793          	li	a5,32
80000338:	0327e063          	bltu	a5,s2,80000358 <draw_number+0x150>
8000033c:	00002717          	auipc	a4,0x2
80000340:	31870713          	addi	a4,a4,792 # 80002654 <_etext+0x84>
80000344:	00291793          	slli	a5,s2,0x2
80000348:	00e787b3          	add	a5,a5,a4
8000034c:	0007a783          	lw	a5,0(a5)
80000350:	00e787b3          	add	a5,a5,a4
80000354:	00078067          	jr	a5
80000358:	00ccc937          	lui	s2,0xccc
8000035c:	0b390913          	addi	s2,s2,179 # ccc0b3 <_entry_offset+0xccc0b3>
80000360:	f5dff06f          	j	800002bc <draw_number+0xb4>
80000364:	00edd937          	lui	s2,0xedd
80000368:	f7290913          	addi	s2,s2,-142 # edcf72 <_entry_offset+0xedcf72>
8000036c:	f51ff06f          	j	800002bc <draw_number+0xb4>
80000370:	00edc937          	lui	s2,0xedc
80000374:	53f90913          	addi	s2,s2,1343 # edc53f <_entry_offset+0xedc53f>
80000378:	f45ff06f          	j	800002bc <draw_number+0xb4>
8000037c:	00f68937          	lui	s2,0xf68
80000380:	c5f90913          	addi	s2,s2,-929 # f67c5f <_entry_offset+0xf67c5f>
80000384:	f39ff06f          	j	800002bc <draw_number+0xb4>
80000388:	00f2b937          	lui	s2,0xf2b
8000038c:	17990913          	addi	s2,s2,377 # f2b179 <_entry_offset+0xf2b179>
80000390:	f2dff06f          	j	800002bc <draw_number+0xb4>
80000394:	00f59937          	lui	s2,0xf59
80000398:	56390913          	addi	s2,s2,1379 # f59563 <_entry_offset+0xf59563>
8000039c:	f21ff06f          	j	800002bc <draw_number+0xb4>
800003a0:	00eee937          	lui	s2,0xeee
800003a4:	4da90913          	addi	s2,s2,1242 # eee4da <_entry_offset+0xeee4da>
800003a8:	f15ff06f          	j	800002bc <draw_number+0xb4>
800003ac:	00edd937          	lui	s2,0xedd
800003b0:	85090913          	addi	s2,s2,-1968 # edc850 <_entry_offset+0xedc850>
800003b4:	f09ff06f          	j	800002bc <draw_number+0xb4>
800003b8:	00f66937          	lui	s2,0xf66
800003bc:	e3b90913          	addi	s2,s2,-453 # f65e3b <_entry_offset+0xf65e3b>
800003c0:	efdff06f          	j	800002bc <draw_number+0xb4>
800003c4:	00ede937          	lui	s2,0xede
800003c8:	0c890913          	addi	s2,s2,200 # ede0c8 <_entry_offset+0xede0c8>
800003cc:	ef1ff06f          	j	800002bc <draw_number+0xb4>

800003d0 <draw_block>:
800003d0:	fb010113          	addi	sp,sp,-80
800003d4:	03612823          	sw	s6,48(sp)
800003d8:	00003b17          	auipc	s6,0x3
800003dc:	280b0b13          	addi	s6,s6,640 # 80003658 <buf.1>
800003e0:	000b2883          	lw	a7,0(s6)
800003e4:	04812423          	sw	s0,72(sp)
800003e8:	04912223          	sw	s1,68(sp)
800003ec:	05212023          	sw	s2,64(sp)
800003f0:	03312e23          	sw	s3,60(sp)
800003f4:	03412c23          	sw	s4,56(sp)
800003f8:	03512a23          	sw	s5,52(sp)
800003fc:	03712623          	sw	s7,44(sp)
80000400:	04112623          	sw	ra,76(sp)
80000404:	02d609b3          	mul	s3,a2,a3
80000408:	00060493          	mv	s1,a2
8000040c:	00068913          	mv	s2,a3
80000410:	00050a13          	mv	s4,a0
80000414:	00058a93          	mv	s5,a1
80000418:	00070413          	mv	s0,a4
8000041c:	00003b97          	auipc	s7,0x3
80000420:	240b8b93          	addi	s7,s7,576 # 8000365c <buf_size.0>
80000424:	08088063          	beqz	a7,800004a4 <draw_block+0xd4>
80000428:	000ba783          	lw	a5,0(s7)
8000042c:	0737c863          	blt	a5,s3,8000049c <draw_block+0xcc>
80000430:	00299813          	slli	a6,s3,0x2
80000434:	00088793          	mv	a5,a7
80000438:	01180833          	add	a6,a6,a7
8000043c:	01305863          	blez	s3,8000044c <draw_block+0x7c>
80000440:	0087a023          	sw	s0,0(a5)
80000444:	00478793          	addi	a5,a5,4
80000448:	ff079ce3          	bne	a5,a6,80000440 <draw_block+0x70>
8000044c:	00810593          	addi	a1,sp,8
80000450:	00b00513          	li	a0,11
80000454:	01412423          	sw	s4,8(sp)
80000458:	01512623          	sw	s5,12(sp)
8000045c:	00912a23          	sw	s1,20(sp)
80000460:	01212c23          	sw	s2,24(sp)
80000464:	01112823          	sw	a7,16(sp)
80000468:	00010e23          	sb	zero,28(sp)
8000046c:	725000ef          	jal	ra,80001390 <ioe_write>
80000470:	04c12083          	lw	ra,76(sp)
80000474:	04812403          	lw	s0,72(sp)
80000478:	04412483          	lw	s1,68(sp)
8000047c:	04012903          	lw	s2,64(sp)
80000480:	03c12983          	lw	s3,60(sp)
80000484:	03812a03          	lw	s4,56(sp)
80000488:	03412a83          	lw	s5,52(sp)
8000048c:	03012b03          	lw	s6,48(sp)
80000490:	02c12b83          	lw	s7,44(sp)
80000494:	05010113          	addi	sp,sp,80
80000498:	00008067          	ret
8000049c:	00088513          	mv	a0,a7
800004a0:	44d010ef          	jal	ra,800020ec <free>
800004a4:	00299513          	slli	a0,s3,0x2
800004a8:	1ed010ef          	jal	ra,80001e94 <malloc>
800004ac:	00ab2023          	sw	a0,0(s6)
800004b0:	013ba023          	sw	s3,0(s7)
800004b4:	00050893          	mv	a7,a0
800004b8:	f6051ce3          	bnez	a0,80000430 <draw_block+0x60>
800004bc:	00002417          	auipc	s0,0x2
800004c0:	21c40413          	addi	s0,s0,540 # 800026d8 <_etext+0x108>
800004c4:	04100513          	li	a0,65
800004c8:	00140413          	addi	s0,s0,1
800004cc:	581000ef          	jal	ra,8000124c <putch>
800004d0:	00044503          	lbu	a0,0(s0)
800004d4:	fe051ae3          	bnez	a0,800004c8 <draw_block+0xf8>
800004d8:	00002417          	auipc	s0,0x2
800004dc:	20c40413          	addi	s0,s0,524 # 800026e4 <_etext+0x114>
800004e0:	04d00513          	li	a0,77
800004e4:	00140413          	addi	s0,s0,1
800004e8:	565000ef          	jal	ra,8000124c <putch>
800004ec:	00044503          	lbu	a0,0(s0)
800004f0:	fe051ae3          	bnez	a0,800004e4 <draw_block+0x114>
800004f4:	00002417          	auipc	s0,0x2
800004f8:	21c40413          	addi	s0,s0,540 # 80002710 <_etext+0x140>
800004fc:	02000513          	li	a0,32
80000500:	00140413          	addi	s0,s0,1
80000504:	549000ef          	jal	ra,8000124c <putch>
80000508:	00044503          	lbu	a0,0(s0)
8000050c:	fe051ae3          	bnez	a0,80000500 <draw_block+0x130>
80000510:	00100513          	li	a0,1
80000514:	545000ef          	jal	ra,80001258 <halt>

80000518 <game_init>:
80000518:	ff010113          	addi	sp,sp,-16
8000051c:	00912223          	sw	s1,4(sp)
80000520:	00003497          	auipc	s1,0x3
80000524:	eb848493          	addi	s1,s1,-328 # 800033d8 <blocks>
80000528:	01000793          	li	a5,16
8000052c:	04000613          	li	a2,64
80000530:	00000593          	li	a1,0
80000534:	01212023          	sw	s2,0(sp)
80000538:	00048513          	mv	a0,s1
8000053c:	00003917          	auipc	s2,0x3
80000540:	e9490913          	addi	s2,s2,-364 # 800033d0 <free_blocks>
80000544:	00f92023          	sw	a5,0(s2)
80000548:	00112623          	sw	ra,12(sp)
8000054c:	00812423          	sw	s0,8(sp)
80000550:	00003797          	auipc	a5,0x3
80000554:	1207a023          	sw	zero,288(a5) # 80003670 <score>
80000558:	421010ef          	jal	ra,80002178 <memset>
8000055c:	071010ef          	jal	ra,80001dcc <rand>
80000560:	00050413          	mv	s0,a0
80000564:	069010ef          	jal	ra,80001dcc <rand>
80000568:	41f45693          	srai	a3,s0,0x1f
8000056c:	01e6d693          	srli	a3,a3,0x1e
80000570:	41f55713          	srai	a4,a0,0x1f
80000574:	01e75713          	srli	a4,a4,0x1e
80000578:	00d407b3          	add	a5,s0,a3
8000057c:	00e50533          	add	a0,a0,a4
80000580:	0037f793          	andi	a5,a5,3
80000584:	40d787b3          	sub	a5,a5,a3
80000588:	00357513          	andi	a0,a0,3
8000058c:	00092683          	lw	a3,0(s2)
80000590:	40e50533          	sub	a0,a0,a4
80000594:	00279793          	slli	a5,a5,0x2
80000598:	00a787b3          	add	a5,a5,a0
8000059c:	00279793          	slli	a5,a5,0x2
800005a0:	fff68713          	addi	a4,a3,-1
800005a4:	00f487b3          	add	a5,s1,a5
800005a8:	00200693          	li	a3,2
800005ac:	00d7a023          	sw	a3,0(a5)
800005b0:	00e92023          	sw	a4,0(s2)
800005b4:	019010ef          	jal	ra,80001dcc <rand>
800005b8:	41f55793          	srai	a5,a0,0x1f
800005bc:	01e7d793          	srli	a5,a5,0x1e
800005c0:	00f50433          	add	s0,a0,a5
800005c4:	00347413          	andi	s0,s0,3
800005c8:	40f40433          	sub	s0,s0,a5
800005cc:	001010ef          	jal	ra,80001dcc <rand>
800005d0:	41f55793          	srai	a5,a0,0x1f
800005d4:	01e7d793          	srli	a5,a5,0x1e
800005d8:	00f50533          	add	a0,a0,a5
800005dc:	00357513          	andi	a0,a0,3
800005e0:	40f50533          	sub	a0,a0,a5
800005e4:	00241793          	slli	a5,s0,0x2
800005e8:	00a787b3          	add	a5,a5,a0
800005ec:	00279793          	slli	a5,a5,0x2
800005f0:	00f487b3          	add	a5,s1,a5
800005f4:	0007a703          	lw	a4,0(a5)
800005f8:	fa071ee3          	bnez	a4,800005b4 <game_init+0x9c>
800005fc:	00092703          	lw	a4,0(s2)
80000600:	00c12083          	lw	ra,12(sp)
80000604:	00812403          	lw	s0,8(sp)
80000608:	00200693          	li	a3,2
8000060c:	00d7a023          	sw	a3,0(a5)
80000610:	fff70793          	addi	a5,a4,-1
80000614:	00f92023          	sw	a5,0(s2)
80000618:	00412483          	lw	s1,4(sp)
8000061c:	00012903          	lw	s2,0(sp)
80000620:	01010113          	addi	sp,sp,16
80000624:	00008067          	ret

80000628 <block_update>:
80000628:	fe010113          	addi	sp,sp,-32
8000062c:	00812e23          	sw	s0,28(sp)
80000630:	00912c23          	sw	s1,24(sp)
80000634:	01212a23          	sw	s2,20(sp)
80000638:	01312823          	sw	s3,16(sp)
8000063c:	00003397          	auipc	t2,0x3
80000640:	02c38393          	addi	t2,t2,44 # 80003668 <read_index>
80000644:	00003417          	auipc	s0,0x3
80000648:	02840413          	addi	s0,s0,40 # 8000366c <right>
8000064c:	00003497          	auipc	s1,0x3
80000650:	01848493          	addi	s1,s1,24 # 80003664 <left>
80000654:	00003917          	auipc	s2,0x3
80000658:	00c90913          	addi	s2,s2,12 # 80003660 <down>
8000065c:	00003997          	auipc	s3,0x3
80000660:	02098993          	addi	s3,s3,32 # 8000367c <up>
80000664:	00003297          	auipc	t0,0x3
80000668:	d6c28293          	addi	t0,t0,-660 # 800033d0 <free_blocks>
8000066c:	01412623          	sw	s4,12(sp)
80000670:	01512423          	sw	s5,8(sp)
80000674:	0003a783          	lw	a5,0(t2)
80000678:	00042503          	lw	a0,0(s0)
8000067c:	0004aa03          	lw	s4,0(s1)
80000680:	00092a83          	lw	s5,0(s2)
80000684:	0009a683          	lw	a3,0(s3)
80000688:	0002a883          	lw	a7,0(t0)
8000068c:	01612223          	sw	s6,4(sp)
80000690:	01712023          	sw	s7,0(sp)
80000694:	00800593          	li	a1,8
80000698:	00000b13          	li	s6,0
8000069c:	00003817          	auipc	a6,0x3
800006a0:	f7c80813          	addi	a6,a6,-132 # 80003618 <key_info>
800006a4:	00100e13          	li	t3,1
800006a8:	04b00313          	li	t1,75
800006ac:	04c00f93          	li	t6,76
800006b0:	04900f13          	li	t5,73
800006b4:	04a00e93          	li	t4,74
800006b8:	00379713          	slli	a4,a5,0x3
800006bc:	00e80633          	add	a2,a6,a4
800006c0:	00462b83          	lw	s7,4(a2)
800006c4:	0fcb9263          	bne	s7,t3,800007a8 <block_update+0x180>
800006c8:	00062603          	lw	a2,0(a2)
800006cc:	12660463          	beq	a2,t1,800007f4 <block_update+0x1cc>
800006d0:	0ec34863          	blt	t1,a2,800007c0 <block_update+0x198>
800006d4:	11e60463          	beq	a2,t5,800007dc <block_update+0x1b4>
800006d8:	09d61663          	bne	a2,t4,80000764 <block_update+0x13c>
800006dc:	00100a93          	li	s5,1
800006e0:	00000613          	li	a2,0
800006e4:	00000593          	li	a1,0
800006e8:	00100313          	li	t1,1
800006ec:	00000e13          	li	t3,0
800006f0:	00178793          	addi	a5,a5,1
800006f4:	41f7de93          	srai	t4,a5,0x1f
800006f8:	01dede93          	srli	t4,t4,0x1d
800006fc:	00e80833          	add	a6,a6,a4
80000700:	01d787b3          	add	a5,a5,t4
80000704:	00188893          	addi	a7,a7,1
80000708:	0077f793          	andi	a5,a5,7
8000070c:	00082223          	sw	zero,4(a6)
80000710:	0112a023          	sw	a7,0(t0)
80000714:	41d787b3          	sub	a5,a5,t4
80000718:	00060463          	beqz	a2,80000720 <block_update+0xf8>
8000071c:	00a42023          	sw	a0,0(s0)
80000720:	00058463          	beqz	a1,80000728 <block_update+0x100>
80000724:	0144a023          	sw	s4,0(s1)
80000728:	00030463          	beqz	t1,80000730 <block_update+0x108>
8000072c:	01592023          	sw	s5,0(s2)
80000730:	000e0463          	beqz	t3,80000738 <block_update+0x110>
80000734:	00d9a023          	sw	a3,0(s3)
80000738:	00f3a023          	sw	a5,0(t2)
8000073c:	01c12403          	lw	s0,28(sp)
80000740:	01812483          	lw	s1,24(sp)
80000744:	01412903          	lw	s2,20(sp)
80000748:	01012983          	lw	s3,16(sp)
8000074c:	00c12a03          	lw	s4,12(sp)
80000750:	00812a83          	lw	s5,8(sp)
80000754:	00412b03          	lw	s6,4(sp)
80000758:	00012b83          	lw	s7,0(sp)
8000075c:	02010113          	addi	sp,sp,32
80000760:	00008067          	ret
80000764:	00178793          	addi	a5,a5,1
80000768:	41f7d613          	srai	a2,a5,0x1f
8000076c:	01d65613          	srli	a2,a2,0x1d
80000770:	0156e6b3          	or	a3,a3,s5
80000774:	0146e6b3          	or	a3,a3,s4
80000778:	00e80733          	add	a4,a6,a4
8000077c:	00c787b3          	add	a5,a5,a2
80000780:	0077f793          	andi	a5,a5,7
80000784:	00072223          	sw	zero,4(a4)
80000788:	00d56533          	or	a0,a0,a3
8000078c:	40c787b3          	sub	a5,a5,a2
80000790:	00188893          	addi	a7,a7,1
80000794:	02051063          	bnez	a0,800007b4 <block_update+0x18c>
80000798:	00000a13          	li	s4,0
8000079c:	00000a93          	li	s5,0
800007a0:	00000693          	li	a3,0
800007a4:	00100b13          	li	s6,1
800007a8:	fff58593          	addi	a1,a1,-1
800007ac:	f00596e3          	bnez	a1,800006b8 <block_update+0x90>
800007b0:	f80b06e3          	beqz	s6,8000073c <block_update+0x114>
800007b4:	0112a023          	sw	a7,0(t0)
800007b8:	00f3a023          	sw	a5,0(t2)
800007bc:	f81ff06f          	j	8000073c <block_update+0x114>
800007c0:	fbf612e3          	bne	a2,t6,80000764 <block_update+0x13c>
800007c4:	00100513          	li	a0,1
800007c8:	00100613          	li	a2,1
800007cc:	00000593          	li	a1,0
800007d0:	00000313          	li	t1,0
800007d4:	00000e13          	li	t3,0
800007d8:	f19ff06f          	j	800006f0 <block_update+0xc8>
800007dc:	00100693          	li	a3,1
800007e0:	00000613          	li	a2,0
800007e4:	00000593          	li	a1,0
800007e8:	00000313          	li	t1,0
800007ec:	00100e13          	li	t3,1
800007f0:	f01ff06f          	j	800006f0 <block_update+0xc8>
800007f4:	00100a13          	li	s4,1
800007f8:	00000613          	li	a2,0
800007fc:	00100593          	li	a1,1
80000800:	00000313          	li	t1,0
80000804:	00000e13          	li	t3,0
80000808:	ee9ff06f          	j	800006f0 <block_update+0xc8>

8000080c <up_update>:
8000080c:	ff010113          	addi	sp,sp,-16
80000810:	00812623          	sw	s0,12(sp)
80000814:	00912423          	sw	s1,8(sp)
80000818:	00003417          	auipc	s0,0x3
8000081c:	e5840413          	addi	s0,s0,-424 # 80003670 <score>
80000820:	00003497          	auipc	s1,0x3
80000824:	bb048493          	addi	s1,s1,-1104 # 800033d0 <free_blocks>
80000828:	00042f03          	lw	t5,0(s0)
8000082c:	0004af83          	lw	t6,0(s1)
80000830:	00003e17          	auipc	t3,0x3
80000834:	bace0e13          	addi	t3,t3,-1108 # 800033dc <blocks+0x4>
80000838:	00000293          	li	t0,0
8000083c:	00000893          	li	a7,0
80000840:	00003397          	auipc	t2,0x3
80000844:	b9838393          	addi	t2,t2,-1128 # 800033d8 <blocks>
80000848:	00400313          	li	t1,4
8000084c:	000e0813          	mv	a6,t3
80000850:	00100513          	li	a0,1
80000854:	00289e93          	slli	t4,a7,0x2
80000858:	00082683          	lw	a3,0(a6)
8000085c:	00080793          	mv	a5,a6
80000860:	00050613          	mv	a2,a0
80000864:	04069663          	bnez	a3,800008b0 <up_update+0xa4>
80000868:	00150513          	addi	a0,a0,1
8000086c:	00480813          	addi	a6,a6,4
80000870:	fe6514e3          	bne	a0,t1,80000858 <up_update+0x4c>
80000874:	00188893          	addi	a7,a7,1
80000878:	010e0e13          	addi	t3,t3,16
8000087c:	fca898e3          	bne	a7,a0,8000084c <up_update+0x40>
80000880:	00028663          	beqz	t0,8000088c <up_update+0x80>
80000884:	01f4a023          	sw	t6,0(s1)
80000888:	01e42023          	sw	t5,0(s0)
8000088c:	00c12403          	lw	s0,12(sp)
80000890:	00812483          	lw	s1,8(sp)
80000894:	01010113          	addi	sp,sp,16
80000898:	00008067          	ret
8000089c:	fed7ae23          	sw	a3,-4(a5)
800008a0:	0007a023          	sw	zero,0(a5)
800008a4:	ffc78793          	addi	a5,a5,-4
800008a8:	fc0700e3          	beqz	a4,80000868 <up_update+0x5c>
800008ac:	00070613          	mv	a2,a4
800008b0:	ffc7a583          	lw	a1,-4(a5)
800008b4:	fff60713          	addi	a4,a2,-1
800008b8:	fe0582e3          	beqz	a1,8000089c <up_update+0x90>
800008bc:	fad596e3          	bne	a1,a3,80000868 <up_update+0x5c>
800008c0:	00ee87b3          	add	a5,t4,a4
800008c4:	00279793          	slli	a5,a5,0x2
800008c8:	00ce8633          	add	a2,t4,a2
800008cc:	00169693          	slli	a3,a3,0x1
800008d0:	00f387b3          	add	a5,t2,a5
800008d4:	00261613          	slli	a2,a2,0x2
800008d8:	00d7a023          	sw	a3,0(a5)
800008dc:	00c387b3          	add	a5,t2,a2
800008e0:	00df0f33          	add	t5,t5,a3
800008e4:	0007a023          	sw	zero,0(a5)
800008e8:	001f8f93          	addi	t6,t6,1
800008ec:	00100293          	li	t0,1
800008f0:	f79ff06f          	j	80000868 <up_update+0x5c>

800008f4 <down_update>:
800008f4:	ff010113          	addi	sp,sp,-16
800008f8:	01212223          	sw	s2,4(sp)
800008fc:	01312023          	sw	s3,0(sp)
80000900:	00003917          	auipc	s2,0x3
80000904:	d7090913          	addi	s2,s2,-656 # 80003670 <score>
80000908:	00003997          	auipc	s3,0x3
8000090c:	ac898993          	addi	s3,s3,-1336 # 800033d0 <free_blocks>
80000910:	00092283          	lw	t0,0(s2)
80000914:	0009a383          	lw	t2,0(s3)
80000918:	00812623          	sw	s0,12(sp)
8000091c:	00912423          	sw	s1,8(sp)
80000920:	00003e97          	auipc	t4,0x3
80000924:	ac0e8e93          	addi	t4,t4,-1344 # 800033e0 <blocks+0x8>
80000928:	00000493          	li	s1,0
8000092c:	00000313          	li	t1,0
80000930:	00300893          	li	a7,3
80000934:	00003417          	auipc	s0,0x3
80000938:	aa440413          	addi	s0,s0,-1372 # 800033d8 <blocks>
8000093c:	fff00e13          	li	t3,-1
80000940:	00400f93          	li	t6,4
80000944:	000e8813          	mv	a6,t4
80000948:	00200513          	li	a0,2
8000094c:	00231f13          	slli	t5,t1,0x2
80000950:	00082683          	lw	a3,0(a6)
80000954:	00080793          	mv	a5,a6
80000958:	00050613          	mv	a2,a0
8000095c:	04069a63          	bnez	a3,800009b0 <down_update+0xbc>
80000960:	fff50513          	addi	a0,a0,-1
80000964:	ffc80813          	addi	a6,a6,-4
80000968:	ffc514e3          	bne	a0,t3,80000950 <down_update+0x5c>
8000096c:	00130313          	addi	t1,t1,1
80000970:	010e8e93          	addi	t4,t4,16
80000974:	fdf318e3          	bne	t1,t6,80000944 <down_update+0x50>
80000978:	00048663          	beqz	s1,80000984 <down_update+0x90>
8000097c:	0079a023          	sw	t2,0(s3)
80000980:	00592023          	sw	t0,0(s2)
80000984:	00c12403          	lw	s0,12(sp)
80000988:	00812483          	lw	s1,8(sp)
8000098c:	00412903          	lw	s2,4(sp)
80000990:	00012983          	lw	s3,0(sp)
80000994:	01010113          	addi	sp,sp,16
80000998:	00008067          	ret
8000099c:	00d7a223          	sw	a3,4(a5)
800009a0:	0007a023          	sw	zero,0(a5)
800009a4:	00478793          	addi	a5,a5,4
800009a8:	fb170ce3          	beq	a4,a7,80000960 <down_update+0x6c>
800009ac:	00070613          	mv	a2,a4
800009b0:	0047a583          	lw	a1,4(a5)
800009b4:	00160713          	addi	a4,a2,1
800009b8:	fe0582e3          	beqz	a1,8000099c <down_update+0xa8>
800009bc:	fad592e3          	bne	a1,a3,80000960 <down_update+0x6c>
800009c0:	00ef07b3          	add	a5,t5,a4
800009c4:	00279793          	slli	a5,a5,0x2
800009c8:	00cf0633          	add	a2,t5,a2
800009cc:	00169693          	slli	a3,a3,0x1
800009d0:	00f407b3          	add	a5,s0,a5
800009d4:	00261613          	slli	a2,a2,0x2
800009d8:	00d7a023          	sw	a3,0(a5)
800009dc:	00c407b3          	add	a5,s0,a2
800009e0:	00d282b3          	add	t0,t0,a3
800009e4:	0007a023          	sw	zero,0(a5)
800009e8:	00138393          	addi	t2,t2,1
800009ec:	00100493          	li	s1,1
800009f0:	f71ff06f          	j	80000960 <down_update+0x6c>

800009f4 <left_update>:
800009f4:	ff010113          	addi	sp,sp,-16
800009f8:	00812623          	sw	s0,12(sp)
800009fc:	00003397          	auipc	t2,0x3
80000a00:	c7438393          	addi	t2,t2,-908 # 80003670 <score>
80000a04:	00003417          	auipc	s0,0x3
80000a08:	9cc40413          	addi	s0,s0,-1588 # 800033d0 <free_blocks>
80000a0c:	0003ae83          	lw	t4,0(t2)
80000a10:	00042f03          	lw	t5,0(s0)
80000a14:	00003e17          	auipc	t3,0x3
80000a18:	9d4e0e13          	addi	t3,t3,-1580 # 800033e8 <blocks+0x10>
80000a1c:	00000f93          	li	t6,0
80000a20:	00000893          	li	a7,0
80000a24:	00003297          	auipc	t0,0x3
80000a28:	9b428293          	addi	t0,t0,-1612 # 800033d8 <blocks>
80000a2c:	00400313          	li	t1,4
80000a30:	000e0813          	mv	a6,t3
80000a34:	00100513          	li	a0,1
80000a38:	00082683          	lw	a3,0(a6)
80000a3c:	00080793          	mv	a5,a6
80000a40:	00050613          	mv	a2,a0
80000a44:	04069463          	bnez	a3,80000a8c <left_update+0x98>
80000a48:	00150513          	addi	a0,a0,1
80000a4c:	01080813          	addi	a6,a6,16
80000a50:	fe6514e3          	bne	a0,t1,80000a38 <left_update+0x44>
80000a54:	00188893          	addi	a7,a7,1
80000a58:	004e0e13          	addi	t3,t3,4
80000a5c:	fca89ae3          	bne	a7,a0,80000a30 <left_update+0x3c>
80000a60:	000f8663          	beqz	t6,80000a6c <left_update+0x78>
80000a64:	01e42023          	sw	t5,0(s0)
80000a68:	01d3a023          	sw	t4,0(t2)
80000a6c:	00c12403          	lw	s0,12(sp)
80000a70:	01010113          	addi	sp,sp,16
80000a74:	00008067          	ret
80000a78:	fed7a823          	sw	a3,-16(a5)
80000a7c:	0007a023          	sw	zero,0(a5)
80000a80:	ff078793          	addi	a5,a5,-16
80000a84:	fc0702e3          	beqz	a4,80000a48 <left_update+0x54>
80000a88:	00070613          	mv	a2,a4
80000a8c:	ff07a583          	lw	a1,-16(a5)
80000a90:	fff60713          	addi	a4,a2,-1
80000a94:	fe0582e3          	beqz	a1,80000a78 <left_update+0x84>
80000a98:	fad598e3          	bne	a1,a3,80000a48 <left_update+0x54>
80000a9c:	00271793          	slli	a5,a4,0x2
80000aa0:	011787b3          	add	a5,a5,a7
80000aa4:	00261713          	slli	a4,a2,0x2
80000aa8:	00279793          	slli	a5,a5,0x2
80000aac:	01170733          	add	a4,a4,a7
80000ab0:	00169693          	slli	a3,a3,0x1
80000ab4:	00f287b3          	add	a5,t0,a5
80000ab8:	00271713          	slli	a4,a4,0x2
80000abc:	00d7a023          	sw	a3,0(a5)
80000ac0:	00e287b3          	add	a5,t0,a4
80000ac4:	00de8eb3          	add	t4,t4,a3
80000ac8:	0007a023          	sw	zero,0(a5)
80000acc:	001f0f13          	addi	t5,t5,1
80000ad0:	00100f93          	li	t6,1
80000ad4:	f75ff06f          	j	80000a48 <left_update+0x54>

80000ad8 <right_update>:
80000ad8:	ff010113          	addi	sp,sp,-16
80000adc:	00912423          	sw	s1,8(sp)
80000ae0:	01212223          	sw	s2,4(sp)
80000ae4:	00003497          	auipc	s1,0x3
80000ae8:	b8c48493          	addi	s1,s1,-1140 # 80003670 <score>
80000aec:	00003917          	auipc	s2,0x3
80000af0:	8e490913          	addi	s2,s2,-1820 # 800033d0 <free_blocks>
80000af4:	0004af83          	lw	t6,0(s1)
80000af8:	00092283          	lw	t0,0(s2)
80000afc:	00812623          	sw	s0,12(sp)
80000b00:	00003e97          	auipc	t4,0x3
80000b04:	8f8e8e93          	addi	t4,t4,-1800 # 800033f8 <blocks+0x20>
80000b08:	00000413          	li	s0,0
80000b0c:	00000313          	li	t1,0
80000b10:	00300893          	li	a7,3
80000b14:	00003397          	auipc	t2,0x3
80000b18:	8c438393          	addi	t2,t2,-1852 # 800033d8 <blocks>
80000b1c:	fff00e13          	li	t3,-1
80000b20:	00400f13          	li	t5,4
80000b24:	000e8813          	mv	a6,t4
80000b28:	00200513          	li	a0,2
80000b2c:	00082683          	lw	a3,0(a6)
80000b30:	00080793          	mv	a5,a6
80000b34:	00050613          	mv	a2,a0
80000b38:	04069863          	bnez	a3,80000b88 <right_update+0xb0>
80000b3c:	fff50513          	addi	a0,a0,-1
80000b40:	ff080813          	addi	a6,a6,-16
80000b44:	ffc514e3          	bne	a0,t3,80000b2c <right_update+0x54>
80000b48:	00130313          	addi	t1,t1,1
80000b4c:	004e8e93          	addi	t4,t4,4
80000b50:	fde31ae3          	bne	t1,t5,80000b24 <right_update+0x4c>
80000b54:	00040663          	beqz	s0,80000b60 <right_update+0x88>
80000b58:	00592023          	sw	t0,0(s2)
80000b5c:	01f4a023          	sw	t6,0(s1)
80000b60:	00c12403          	lw	s0,12(sp)
80000b64:	00812483          	lw	s1,8(sp)
80000b68:	00412903          	lw	s2,4(sp)
80000b6c:	01010113          	addi	sp,sp,16
80000b70:	00008067          	ret
80000b74:	00d7a823          	sw	a3,16(a5)
80000b78:	0007a023          	sw	zero,0(a5)
80000b7c:	01078793          	addi	a5,a5,16
80000b80:	fb170ee3          	beq	a4,a7,80000b3c <right_update+0x64>
80000b84:	00070613          	mv	a2,a4
80000b88:	0107a583          	lw	a1,16(a5)
80000b8c:	00160713          	addi	a4,a2,1
80000b90:	fe0582e3          	beqz	a1,80000b74 <right_update+0x9c>
80000b94:	fad594e3          	bne	a1,a3,80000b3c <right_update+0x64>
80000b98:	00271793          	slli	a5,a4,0x2
80000b9c:	006787b3          	add	a5,a5,t1
80000ba0:	00261713          	slli	a4,a2,0x2
80000ba4:	00279793          	slli	a5,a5,0x2
80000ba8:	00670733          	add	a4,a4,t1
80000bac:	00169693          	slli	a3,a3,0x1
80000bb0:	00f387b3          	add	a5,t2,a5
80000bb4:	00271713          	slli	a4,a4,0x2
80000bb8:	00d7a023          	sw	a3,0(a5)
80000bbc:	00e387b3          	add	a5,t2,a4
80000bc0:	00df8fb3          	add	t6,t6,a3
80000bc4:	0007a023          	sw	zero,0(a5)
80000bc8:	00128293          	addi	t0,t0,1
80000bcc:	00100413          	li	s0,1
80000bd0:	f6dff06f          	j	80000b3c <right_update+0x64>

80000bd4 <game_logic_update>:
80000bd4:	00600793          	li	a5,6
80000bd8:	02f56533          	rem	a0,a0,a5
80000bdc:	ff010113          	addi	sp,sp,-16
80000be0:	00112623          	sw	ra,12(sp)
80000be4:	04050063          	beqz	a0,80000c24 <game_logic_update+0x50>
80000be8:	00003797          	auipc	a5,0x3
80000bec:	a947a783          	lw	a5,-1388(a5) # 8000367c <up>
80000bf0:	04079263          	bnez	a5,80000c34 <game_logic_update+0x60>
80000bf4:	00003797          	auipc	a5,0x3
80000bf8:	a6c7a783          	lw	a5,-1428(a5) # 80003660 <down>
80000bfc:	04079e63          	bnez	a5,80000c58 <game_logic_update+0x84>
80000c00:	00003797          	auipc	a5,0x3
80000c04:	a647a783          	lw	a5,-1436(a5) # 80003664 <left>
80000c08:	06079a63          	bnez	a5,80000c7c <game_logic_update+0xa8>
80000c0c:	00003797          	auipc	a5,0x3
80000c10:	a607a783          	lw	a5,-1440(a5) # 8000366c <right>
80000c14:	08079663          	bnez	a5,80000ca0 <game_logic_update+0xcc>
80000c18:	00c12083          	lw	ra,12(sp)
80000c1c:	01010113          	addi	sp,sp,16
80000c20:	00008067          	ret
80000c24:	a05ff0ef          	jal	ra,80000628 <block_update>
80000c28:	00003797          	auipc	a5,0x3
80000c2c:	a547a783          	lw	a5,-1452(a5) # 8000367c <up>
80000c30:	fc0782e3          	beqz	a5,80000bf4 <game_logic_update+0x20>
80000c34:	bd9ff0ef          	jal	ra,8000080c <up_update>
80000c38:	00002797          	auipc	a5,0x2
80000c3c:	7987a783          	lw	a5,1944(a5) # 800033d0 <free_blocks>
80000c40:	08079263          	bnez	a5,80000cc4 <game_logic_update+0xf0>
80000c44:	00003797          	auipc	a5,0x3
80000c48:	a207ac23          	sw	zero,-1480(a5) # 8000367c <up>
80000c4c:	00003797          	auipc	a5,0x3
80000c50:	a147a783          	lw	a5,-1516(a5) # 80003660 <down>
80000c54:	fa0786e3          	beqz	a5,80000c00 <game_logic_update+0x2c>
80000c58:	c9dff0ef          	jal	ra,800008f4 <down_update>
80000c5c:	00002797          	auipc	a5,0x2
80000c60:	7747a783          	lw	a5,1908(a5) # 800033d0 <free_blocks>
80000c64:	06079863          	bnez	a5,80000cd4 <game_logic_update+0x100>
80000c68:	00003797          	auipc	a5,0x3
80000c6c:	9e07ac23          	sw	zero,-1544(a5) # 80003660 <down>
80000c70:	00003797          	auipc	a5,0x3
80000c74:	9f47a783          	lw	a5,-1548(a5) # 80003664 <left>
80000c78:	f8078ae3          	beqz	a5,80000c0c <game_logic_update+0x38>
80000c7c:	d79ff0ef          	jal	ra,800009f4 <left_update>
80000c80:	00002797          	auipc	a5,0x2
80000c84:	7507a783          	lw	a5,1872(a5) # 800033d0 <free_blocks>
80000c88:	04079e63          	bnez	a5,80000ce4 <game_logic_update+0x110>
80000c8c:	00003797          	auipc	a5,0x3
80000c90:	9c07ac23          	sw	zero,-1576(a5) # 80003664 <left>
80000c94:	00003797          	auipc	a5,0x3
80000c98:	9d87a783          	lw	a5,-1576(a5) # 8000366c <right>
80000c9c:	f6078ee3          	beqz	a5,80000c18 <game_logic_update+0x44>
80000ca0:	e39ff0ef          	jal	ra,80000ad8 <right_update>
80000ca4:	00002797          	auipc	a5,0x2
80000ca8:	72c7a783          	lw	a5,1836(a5) # 800033d0 <free_blocks>
80000cac:	04079463          	bnez	a5,80000cf4 <game_logic_update+0x120>
80000cb0:	00003797          	auipc	a5,0x3
80000cb4:	9a07ae23          	sw	zero,-1604(a5) # 8000366c <right>
80000cb8:	00c12083          	lw	ra,12(sp)
80000cbc:	01010113          	addi	sp,sp,16
80000cc0:	00008067          	ret
80000cc4:	b4cff0ef          	jal	ra,80000010 <new_block.part.0>
80000cc8:	00003797          	auipc	a5,0x3
80000ccc:	9a07aa23          	sw	zero,-1612(a5) # 8000367c <up>
80000cd0:	f7dff06f          	j	80000c4c <game_logic_update+0x78>
80000cd4:	b3cff0ef          	jal	ra,80000010 <new_block.part.0>
80000cd8:	00003797          	auipc	a5,0x3
80000cdc:	9807a423          	sw	zero,-1656(a5) # 80003660 <down>
80000ce0:	f91ff06f          	j	80000c70 <game_logic_update+0x9c>
80000ce4:	b2cff0ef          	jal	ra,80000010 <new_block.part.0>
80000ce8:	00003797          	auipc	a5,0x3
80000cec:	9607ae23          	sw	zero,-1668(a5) # 80003664 <left>
80000cf0:	fa5ff06f          	j	80000c94 <game_logic_update+0xc0>
80000cf4:	b1cff0ef          	jal	ra,80000010 <new_block.part.0>
80000cf8:	00003797          	auipc	a5,0x3
80000cfc:	9607aa23          	sw	zero,-1676(a5) # 8000366c <right>
80000d00:	fb9ff06f          	j	80000cb8 <game_logic_update+0xe4>

80000d04 <render>:
80000d04:	f7010113          	addi	sp,sp,-144
80000d08:	07612823          	sw	s6,112(sp)
80000d0c:	00003b17          	auipc	s6,0x3
80000d10:	968b0b13          	addi	s6,s6,-1688 # 80003674 <screen_h>
80000d14:	000b2683          	lw	a3,0(s6)
80000d18:	08912223          	sw	s1,132(sp)
80000d1c:	00300793          	li	a5,3
80000d20:	f0668493          	addi	s1,a3,-250
80000d24:	02f4c4b3          	div	s1,s1,a5
80000d28:	00003617          	auipc	a2,0x3
80000d2c:	95062603          	lw	a2,-1712(a2) # 80003678 <screen_w>
80000d30:	f0660793          	addi	a5,a2,-250
80000d34:	08812423          	sw	s0,136(sp)
80000d38:	09212023          	sw	s2,128(sp)
80000d3c:	01f7d413          	srli	s0,a5,0x1f
80000d40:	00bbb937          	lui	s2,0xbbb
80000d44:	00f40433          	add	s0,s0,a5
80000d48:	da090713          	addi	a4,s2,-608 # bbada0 <_entry_offset+0xbbada0>
80000d4c:	00000593          	li	a1,0
80000d50:	00000513          	li	a0,0
80000d54:	08112623          	sw	ra,140(sp)
80000d58:	07312e23          	sw	s3,124(sp)
80000d5c:	07412c23          	sw	s4,120(sp)
80000d60:	07512a23          	sw	s5,116(sp)
80000d64:	07712623          	sw	s7,108(sp)
80000d68:	07812423          	sw	s8,104(sp)
80000d6c:	07912223          	sw	s9,100(sp)
80000d70:	07a12023          	sw	s10,96(sp)
80000d74:	40145413          	srai	s0,s0,0x1
80000d78:	05b12e23          	sw	s11,92(sp)
80000d7c:	e54ff0ef          	jal	ra,800003d0 <draw_block>
80000d80:	00040513          	mv	a0,s0
80000d84:	da090713          	addi	a4,s2,-608
80000d88:	0fa00693          	li	a3,250
80000d8c:	0fa00613          	li	a2,250
80000d90:	00a50d13          	addi	s10,a0,10
80000d94:	0fa50c13          	addi	s8,a0,250
80000d98:	00f66cb7          	lui	s9,0xf66
80000d9c:	00edc937          	lui	s2,0xedc
80000da0:	00ccc9b7          	lui	s3,0xccc
80000da4:	00edd437          	lui	s0,0xedd
80000da8:	00002a97          	auipc	s5,0x2
80000dac:	630a8a93          	addi	s5,s5,1584 # 800033d8 <blocks>
80000db0:	53f90a13          	addi	s4,s2,1343 # edc53f <_entry_offset+0xedc53f>
80000db4:	00048593          	mv	a1,s1
80000db8:	e18ff0ef          	jal	ra,800003d0 <draw_block>
80000dbc:	e3bc8793          	addi	a5,s9,-453 # f65e3b <_entry_offset+0xf65e3b>
80000dc0:	00a48b93          	addi	s7,s1,10
80000dc4:	00f12623          	sw	a5,12(sp)
80000dc8:	0fa48493          	addi	s1,s1,250
80000dcc:	0b398993          	addi	s3,s3,179 # ccc0b3 <_entry_offset+0xccc0b3>
80000dd0:	000b8c93          	mv	s9,s7
80000dd4:	000a8d93          	mv	s11,s5
80000dd8:	000da783          	lw	a5,0(s11)
80000ddc:	04000713          	li	a4,64
80000de0:	1ee78463          	beq	a5,a4,80000fc8 <render+0x2c4>
80000de4:	18f74a63          	blt	a4,a5,80000f78 <render+0x274>
80000de8:	ffe78713          	addi	a4,a5,-2
80000dec:	01e00693          	li	a3,30
80000df0:	02e6e463          	bltu	a3,a4,80000e18 <render+0x114>
80000df4:	02000713          	li	a4,32
80000df8:	02f76063          	bltu	a4,a5,80000e18 <render+0x114>
80000dfc:	00002717          	auipc	a4,0x2
80000e00:	95470713          	addi	a4,a4,-1708 # 80002750 <_etext+0x180>
80000e04:	00279793          	slli	a5,a5,0x2
80000e08:	00e787b3          	add	a5,a5,a4
80000e0c:	0007a783          	lw	a5,0(a5)
80000e10:	00e787b3          	add	a5,a5,a4
80000e14:	00078067          	jr	a5
80000e18:	00098713          	mv	a4,s3
80000e1c:	03200613          	li	a2,50
80000e20:	03200693          	li	a3,50
80000e24:	000c8593          	mv	a1,s9
80000e28:	000d0513          	mv	a0,s10
80000e2c:	da4ff0ef          	jal	ra,800003d0 <draw_block>
80000e30:	000da603          	lw	a2,0(s11)
80000e34:	0e061e63          	bnez	a2,80000f30 <render+0x22c>
80000e38:	03cc8c93          	addi	s9,s9,60
80000e3c:	004d8d93          	addi	s11,s11,4
80000e40:	f89c9ce3          	bne	s9,s1,80000dd8 <render+0xd4>
80000e44:	03cd0d13          	addi	s10,s10,60
80000e48:	010a8a93          	addi	s5,s5,16
80000e4c:	f98d12e3          	bne	s10,s8,80000dd0 <render+0xcc>
80000e50:	00002617          	auipc	a2,0x2
80000e54:	8f460613          	addi	a2,a2,-1804 # 80002744 <_etext+0x174>
80000e58:	00003697          	auipc	a3,0x3
80000e5c:	8186a683          	lw	a3,-2024(a3) # 80003670 <score>
80000e60:	02000593          	li	a1,32
80000e64:	03010513          	addi	a0,sp,48
80000e68:	549000ef          	jal	ra,80001bb0 <snprintf>
80000e6c:	03014603          	lbu	a2,48(sp)
80000e70:	00bbb937          	lui	s2,0xbbb
80000e74:	03110493          	addi	s1,sp,49
80000e78:	00a00413          	li	s0,10
80000e7c:	da090913          	addi	s2,s2,-608 # bbada0 <_entry_offset+0xbbada0>
80000e80:	02060463          	beqz	a2,80000ea8 <render+0x1a4>
80000e84:	000b2583          	lw	a1,0(s6)
80000e88:	00040513          	mv	a0,s0
80000e8c:	00090693          	mv	a3,s2
80000e90:	fe258593          	addi	a1,a1,-30
80000e94:	a48ff0ef          	jal	ra,800000dc <draw_char>
80000e98:	0004c603          	lbu	a2,0(s1)
80000e9c:	00840413          	addi	s0,s0,8 # edd008 <_entry_offset+0xedd008>
80000ea0:	00148493          	addi	s1,s1,1
80000ea4:	fe0610e3          	bnez	a2,80000e84 <render+0x180>
80000ea8:	01810593          	addi	a1,sp,24
80000eac:	00100793          	li	a5,1
80000eb0:	00b00513          	li	a0,11
80000eb4:	00012c23          	sw	zero,24(sp)
80000eb8:	00012e23          	sw	zero,28(sp)
80000ebc:	02012023          	sw	zero,32(sp)
80000ec0:	02012223          	sw	zero,36(sp)
80000ec4:	02012423          	sw	zero,40(sp)
80000ec8:	02f10623          	sb	a5,44(sp)
80000ecc:	4c4000ef          	jal	ra,80001390 <ioe_write>
80000ed0:	08c12083          	lw	ra,140(sp)
80000ed4:	08812403          	lw	s0,136(sp)
80000ed8:	08412483          	lw	s1,132(sp)
80000edc:	08012903          	lw	s2,128(sp)
80000ee0:	07c12983          	lw	s3,124(sp)
80000ee4:	07812a03          	lw	s4,120(sp)
80000ee8:	07412a83          	lw	s5,116(sp)
80000eec:	07012b03          	lw	s6,112(sp)
80000ef0:	06c12b83          	lw	s7,108(sp)
80000ef4:	06812c03          	lw	s8,104(sp)
80000ef8:	06412c83          	lw	s9,100(sp)
80000efc:	06012d03          	lw	s10,96(sp)
80000f00:	05c12d83          	lw	s11,92(sp)
80000f04:	09010113          	addi	sp,sp,144
80000f08:	00008067          	ret
80000f0c:	00f68737          	lui	a4,0xf68
80000f10:	03200613          	li	a2,50
80000f14:	c5f70713          	addi	a4,a4,-929 # f67c5f <_entry_offset+0xf67c5f>
80000f18:	03200693          	li	a3,50
80000f1c:	000c8593          	mv	a1,s9
80000f20:	000d0513          	mv	a0,s10
80000f24:	cacff0ef          	jal	ra,800003d0 <draw_block>
80000f28:	000da603          	lw	a2,0(s11)
80000f2c:	f00606e3          	beqz	a2,80000e38 <render+0x134>
80000f30:	03200713          	li	a4,50
80000f34:	03200693          	li	a3,50
80000f38:	000c8593          	mv	a1,s9
80000f3c:	000d0513          	mv	a0,s10
80000f40:	ac8ff0ef          	jal	ra,80000208 <draw_number>
80000f44:	ef5ff06f          	j	80000e38 <render+0x134>
80000f48:	00f59737          	lui	a4,0xf59
80000f4c:	56370713          	addi	a4,a4,1379 # f59563 <_entry_offset+0xf59563>
80000f50:	ecdff06f          	j	80000e1c <render+0x118>
80000f54:	00f2b737          	lui	a4,0xf2b
80000f58:	17970713          	addi	a4,a4,377 # f2b179 <_entry_offset+0xf2b179>
80000f5c:	ec1ff06f          	j	80000e1c <render+0x118>
80000f60:	00eee737          	lui	a4,0xeee
80000f64:	4da70713          	addi	a4,a4,1242 # eee4da <_entry_offset+0xeee4da>
80000f68:	eb5ff06f          	j	80000e1c <render+0x118>
80000f6c:	00ede737          	lui	a4,0xede
80000f70:	0c870713          	addi	a4,a4,200 # ede0c8 <_entry_offset+0xede0c8>
80000f74:	ea9ff06f          	j	80000e1c <render+0x118>
80000f78:	20000713          	li	a4,512
80000f7c:	04e78063          	beq	a5,a4,80000fbc <render+0x2b8>
80000f80:	02f75063          	bge	a4,a5,80000fa0 <render+0x29c>
80000f84:	40000693          	li	a3,1024
80000f88:	000a0713          	mv	a4,s4
80000f8c:	e8d788e3          	beq	a5,a3,80000e1c <render+0x118>
80000f90:	80078793          	addi	a5,a5,-2048
80000f94:	e80792e3          	bnez	a5,80000e18 <render+0x114>
80000f98:	22e90713          	addi	a4,s2,558
80000f9c:	e81ff06f          	j	80000e1c <render+0x118>
80000fa0:	08000693          	li	a3,128
80000fa4:	f7240713          	addi	a4,s0,-142
80000fa8:	e6d78ae3          	beq	a5,a3,80000e1c <render+0x118>
80000fac:	10000713          	li	a4,256
80000fb0:	e6e794e3          	bne	a5,a4,80000e18 <render+0x114>
80000fb4:	c6140713          	addi	a4,s0,-927
80000fb8:	e65ff06f          	j	80000e1c <render+0x118>
80000fbc:	00edd7b7          	lui	a5,0xedd
80000fc0:	85078713          	addi	a4,a5,-1968 # edc850 <_entry_offset+0xedc850>
80000fc4:	e59ff06f          	j	80000e1c <render+0x118>
80000fc8:	00c12703          	lw	a4,12(sp)
80000fcc:	e51ff06f          	j	80000e1c <render+0x118>

80000fd0 <video_init>:
80000fd0:	fe010113          	addi	sp,sp,-32
80000fd4:	00010593          	mv	a1,sp
80000fd8:	00900513          	li	a0,9
80000fdc:	00112e23          	sw	ra,28(sp)
80000fe0:	394000ef          	jal	ra,80001374 <ioe_read>
80000fe4:	00412703          	lw	a4,4(sp)
80000fe8:	00812783          	lw	a5,8(sp)
80000fec:	01c12083          	lw	ra,28(sp)
80000ff0:	00002697          	auipc	a3,0x2
80000ff4:	68e6a423          	sw	a4,1672(a3) # 80003678 <screen_w>
80000ff8:	00070593          	mv	a1,a4
80000ffc:	00002717          	auipc	a4,0x2
80001000:	66f72c23          	sw	a5,1656(a4) # 80003674 <screen_h>
80001004:	00001517          	auipc	a0,0x1
80001008:	7d050513          	addi	a0,a0,2000 # 800027d4 <_etext+0x204>
8000100c:	00078613          	mv	a2,a5
80001010:	02010113          	addi	sp,sp,32
80001014:	0190006f          	j	8000182c <printf>

80001018 <main>:
80001018:	fc010113          	addi	sp,sp,-64
8000101c:	02112e23          	sw	ra,60(sp)
80001020:	02812c23          	sw	s0,56(sp)
80001024:	02912a23          	sw	s1,52(sp)
80001028:	03212823          	sw	s2,48(sp)
8000102c:	03312623          	sw	s3,44(sp)
80001030:	03412423          	sw	s4,40(sp)
80001034:	03512223          	sw	s5,36(sp)
80001038:	03612023          	sw	s6,32(sp)
8000103c:	01712e23          	sw	s7,28(sp)
80001040:	01812c23          	sw	s8,24(sp)
80001044:	2d4000ef          	jal	ra,80001318 <ioe_init>
80001048:	f89ff0ef          	jal	ra,80000fd0 <video_init>
8000104c:	00810593          	addi	a1,sp,8
80001050:	00400513          	li	a0,4
80001054:	320000ef          	jal	ra,80001374 <ioe_read>
80001058:	00814783          	lbu	a5,8(sp)
8000105c:	06079063          	bnez	a5,800010bc <main+0xa4>
80001060:	00001417          	auipc	s0,0x1
80001064:	67840413          	addi	s0,s0,1656 # 800026d8 <_etext+0x108>
80001068:	04100513          	li	a0,65
8000106c:	00140413          	addi	s0,s0,1
80001070:	1dc000ef          	jal	ra,8000124c <putch>
80001074:	00044503          	lbu	a0,0(s0)
80001078:	fe051ae3          	bnez	a0,8000106c <main+0x54>
8000107c:	00001417          	auipc	s0,0x1
80001080:	77440413          	addi	s0,s0,1908 # 800027f0 <_etext+0x220>
80001084:	07200513          	li	a0,114
80001088:	00140413          	addi	s0,s0,1
8000108c:	1c0000ef          	jal	ra,8000124c <putch>
80001090:	00044503          	lbu	a0,0(s0)
80001094:	fe051ae3          	bnez	a0,80001088 <main+0x70>
80001098:	00001417          	auipc	s0,0x1
8000109c:	76840413          	addi	s0,s0,1896 # 80002800 <_etext+0x230>
800010a0:	02000513          	li	a0,32
800010a4:	00140413          	addi	s0,s0,1
800010a8:	1a4000ef          	jal	ra,8000124c <putch>
800010ac:	00044503          	lbu	a0,0(s0)
800010b0:	fe051ae3          	bnez	a0,800010a4 <main+0x8c>
800010b4:	00100513          	li	a0,1
800010b8:	1a0000ef          	jal	ra,80001258 <halt>
800010bc:	00810593          	addi	a1,sp,8
800010c0:	00700513          	li	a0,7
800010c4:	2b0000ef          	jal	ra,80001374 <ioe_read>
800010c8:	00814783          	lbu	a5,8(sp)
800010cc:	04079e63          	bnez	a5,80001128 <main+0x110>
800010d0:	00001417          	auipc	s0,0x1
800010d4:	60840413          	addi	s0,s0,1544 # 800026d8 <_etext+0x108>
800010d8:	04100513          	li	a0,65
800010dc:	00140413          	addi	s0,s0,1
800010e0:	16c000ef          	jal	ra,8000124c <putch>
800010e4:	00044503          	lbu	a0,0(s0)
800010e8:	fe051ae3          	bnez	a0,800010dc <main+0xc4>
800010ec:	00001417          	auipc	s0,0x1
800010f0:	74840413          	addi	s0,s0,1864 # 80002834 <_etext+0x264>
800010f4:	07200513          	li	a0,114
800010f8:	00140413          	addi	s0,s0,1
800010fc:	150000ef          	jal	ra,8000124c <putch>
80001100:	00044503          	lbu	a0,0(s0)
80001104:	fe051ae3          	bnez	a0,800010f8 <main+0xe0>
80001108:	00001417          	auipc	s0,0x1
8000110c:	74040413          	addi	s0,s0,1856 # 80002848 <_etext+0x278>
80001110:	02000513          	li	a0,32
80001114:	00140413          	addi	s0,s0,1
80001118:	134000ef          	jal	ra,8000124c <putch>
8000111c:	00044503          	lbu	a0,0(s0)
80001120:	fe051ae3          	bnez	a0,80001114 <main+0xfc>
80001124:	f91ff06f          	j	800010b4 <main+0x9c>
80001128:	00810593          	addi	a1,sp,8
8000112c:	00600513          	li	a0,6
80001130:	244000ef          	jal	ra,80001374 <ioe_read>
80001134:	00812503          	lw	a0,8(sp)
80001138:	00000c13          	li	s8,0
8000113c:	00000413          	li	s0,0
80001140:	4c1000ef          	jal	ra,80001e00 <srand>
80001144:	bd4ff0ef          	jal	ra,80000518 <game_init>
80001148:	00810593          	addi	a1,sp,8
8000114c:	00600513          	li	a0,6
80001150:	224000ef          	jal	ra,80001374 <ioe_read>
80001154:	00001517          	auipc	a0,0x1
80001158:	72850513          	addi	a0,a0,1832 # 8000287c <_etext+0x2ac>
8000115c:	00812b83          	lw	s7,8(sp)
80001160:	00c12b03          	lw	s6,12(sp)
80001164:	00100493          	li	s1,1
80001168:	6c4000ef          	jal	ra,8000182c <printf>
8000116c:	00002917          	auipc	s2,0x2
80001170:	26490913          	addi	s2,s2,612 # 800033d0 <free_blocks>
80001174:	00002a17          	auipc	s4,0x2
80001178:	50ca0a13          	addi	s4,s4,1292 # 80003680 <write_index>
8000117c:	00002a97          	auipc	s5,0x2
80001180:	49ca8a93          	addi	s5,s5,1180 # 80003618 <key_info>
80001184:	00810593          	addi	a1,sp,8
80001188:	00600513          	li	a0,6
8000118c:	1e8000ef          	jal	ra,80001374 <ioe_read>
80001190:	00812583          	lw	a1,8(sp)
80001194:	00c12783          	lw	a5,12(sp)
80001198:	00008637          	lui	a2,0x8
8000119c:	41758533          	sub	a0,a1,s7
800011a0:	00a5b5b3          	sltu	a1,a1,a0
800011a4:	416787b3          	sub	a5,a5,s6
800011a8:	23560613          	addi	a2,a2,565 # 8235 <_entry_offset+0x8235>
800011ac:	00000693          	li	a3,0
800011b0:	40b785b3          	sub	a1,a5,a1
800011b4:	308010ef          	jal	ra,800024bc <__udivdi3>
800011b8:	00050993          	mv	s3,a0
800011bc:	00a45a63          	bge	s0,a0,800011d0 <main+0x1b8>
800011c0:	00040513          	mv	a0,s0
800011c4:	00140413          	addi	s0,s0,1
800011c8:	a0dff0ef          	jal	ra,80000bd4 <game_logic_update>
800011cc:	fe899ae3          	bne	s3,s0,800011c0 <main+0x1a8>
800011d0:	00300993          	li	s3,3
800011d4:	00810593          	addi	a1,sp,8
800011d8:	00800513          	li	a0,8
800011dc:	198000ef          	jal	ra,80001374 <ioe_read>
800011e0:	00c12783          	lw	a5,12(sp)
800011e4:	00814703          	lbu	a4,8(sp)
800011e8:	04078663          	beqz	a5,80001234 <main+0x21c>
800011ec:	fe0704e3          	beqz	a4,800011d4 <main+0x1bc>
800011f0:	04978a63          	beq	a5,s1,80001244 <main+0x22c>
800011f4:	00092703          	lw	a4,0(s2)
800011f8:	fce05ee3          	blez	a4,800011d4 <main+0x1bc>
800011fc:	fb778693          	addi	a3,a5,-73
80001200:	fcd9eae3          	bltu	s3,a3,800011d4 <main+0x1bc>
80001204:	000a2683          	lw	a3,0(s4)
80001208:	00800593          	li	a1,8
8000120c:	fff70713          	addi	a4,a4,-1
80001210:	00168613          	addi	a2,a3,1
80001214:	02b66633          	rem	a2,a2,a1
80001218:	00369693          	slli	a3,a3,0x3
8000121c:	00da86b3          	add	a3,s5,a3
80001220:	00f6a023          	sw	a5,0(a3)
80001224:	0096a223          	sw	s1,4(a3)
80001228:	00e92023          	sw	a4,0(s2)
8000122c:	00ca2023          	sw	a2,0(s4)
80001230:	fa5ff06f          	j	800011d4 <main+0x1bc>
80001234:	f48c58e3          	bge	s8,s0,80001184 <main+0x16c>
80001238:	acdff0ef          	jal	ra,80000d04 <render>
8000123c:	00040c13          	mv	s8,s0
80001240:	f45ff06f          	j	80001184 <main+0x16c>
80001244:	00000513          	li	a0,0
80001248:	010000ef          	jal	ra,80001258 <halt>

8000124c <putch>:
8000124c:	a00007b7          	lui	a5,0xa0000
80001250:	3ea78c23          	sb	a0,1016(a5) # a00003f8 <_end+0x1fff43f8>
80001254:	00008067          	ret

80001258 <halt>:
80001258:	00050513          	mv	a0,a0
8000125c:	00100073          	ebreak
80001260:	0000006f          	j	80001260 <halt+0x8>

80001264 <_trm_init>:
80001264:	ff010113          	addi	sp,sp,-16
80001268:	00001517          	auipc	a0,0x1
8000126c:	63850513          	addi	a0,a0,1592 # 800028a0 <mainargs>
80001270:	00112623          	sw	ra,12(sp)
80001274:	da5ff0ef          	jal	ra,80001018 <main>
80001278:	00050513          	mv	a0,a0
8000127c:	00100073          	ebreak
80001280:	0000006f          	j	80001280 <_trm_init+0x1c>

80001284 <__am_timer_config>:
80001284:	00100793          	li	a5,1
80001288:	00f50023          	sb	a5,0(a0)
8000128c:	00f500a3          	sb	a5,1(a0)
80001290:	00008067          	ret

80001294 <__am_input_config>:
80001294:	00100793          	li	a5,1
80001298:	00f50023          	sb	a5,0(a0)
8000129c:	00008067          	ret

800012a0 <__am_uart_config>:
800012a0:	00050023          	sb	zero,0(a0)
800012a4:	00008067          	ret

800012a8 <__am_net_config>:
800012a8:	00050023          	sb	zero,0(a0)
800012ac:	00008067          	ret

800012b0 <fail>:
800012b0:	ff010113          	addi	sp,sp,-16
800012b4:	00812423          	sw	s0,8(sp)
800012b8:	00112623          	sw	ra,12(sp)
800012bc:	00001417          	auipc	s0,0x1
800012c0:	41c40413          	addi	s0,s0,1052 # 800026d8 <_etext+0x108>
800012c4:	04100513          	li	a0,65
800012c8:	00140413          	addi	s0,s0,1
800012cc:	f81ff0ef          	jal	ra,8000124c <putch>
800012d0:	00044503          	lbu	a0,0(s0)
800012d4:	fe051ae3          	bnez	a0,800012c8 <fail+0x18>
800012d8:	00001417          	auipc	s0,0x1
800012dc:	60840413          	addi	s0,s0,1544 # 800028e0 <mainargs+0x40>
800012e0:	06100513          	li	a0,97
800012e4:	00140413          	addi	s0,s0,1
800012e8:	f65ff0ef          	jal	ra,8000124c <putch>
800012ec:	00044503          	lbu	a0,0(s0)
800012f0:	fe051ae3          	bnez	a0,800012e4 <fail+0x34>
800012f4:	00001417          	auipc	s0,0x1
800012f8:	60840413          	addi	s0,s0,1544 # 800028fc <mainargs+0x5c>
800012fc:	02000513          	li	a0,32
80001300:	00140413          	addi	s0,s0,1
80001304:	f49ff0ef          	jal	ra,8000124c <putch>
80001308:	00044503          	lbu	a0,0(s0)
8000130c:	fe051ae3          	bnez	a0,80001300 <fail+0x50>
80001310:	00100513          	li	a0,1
80001314:	f45ff0ef          	jal	ra,80001258 <halt>

80001318 <ioe_init>:
80001318:	ff010113          	addi	sp,sp,-16
8000131c:	00112623          	sw	ra,12(sp)
80001320:	00002797          	auipc	a5,0x2
80001324:	eb078793          	addi	a5,a5,-336 # 800031d0 <lut>
80001328:	00002697          	auipc	a3,0x2
8000132c:	0a868693          	addi	a3,a3,168 # 800033d0 <free_blocks>
80001330:	00000617          	auipc	a2,0x0
80001334:	f8060613          	addi	a2,a2,-128 # 800012b0 <fail>
80001338:	00c0006f          	j	80001344 <ioe_init+0x2c>
8000133c:	00478793          	addi	a5,a5,4
80001340:	00d78c63          	beq	a5,a3,80001358 <ioe_init+0x40>
80001344:	0007a703          	lw	a4,0(a5)
80001348:	fe071ae3          	bnez	a4,8000133c <ioe_init+0x24>
8000134c:	00c7a023          	sw	a2,0(a5)
80001350:	00478793          	addi	a5,a5,4
80001354:	fed798e3          	bne	a5,a3,80001344 <ioe_init+0x2c>
80001358:	0f8000ef          	jal	ra,80001450 <__am_gpu_init>
8000135c:	050000ef          	jal	ra,800013ac <__am_timer_init>
80001360:	288000ef          	jal	ra,800015e8 <__am_audio_init>
80001364:	00c12083          	lw	ra,12(sp)
80001368:	00100513          	li	a0,1
8000136c:	01010113          	addi	sp,sp,16
80001370:	00008067          	ret

80001374 <ioe_read>:
80001374:	00251513          	slli	a0,a0,0x2
80001378:	00002797          	auipc	a5,0x2
8000137c:	e5878793          	addi	a5,a5,-424 # 800031d0 <lut>
80001380:	00a787b3          	add	a5,a5,a0
80001384:	0007a783          	lw	a5,0(a5)
80001388:	00058513          	mv	a0,a1
8000138c:	00078067          	jr	a5

80001390 <ioe_write>:
80001390:	00251513          	slli	a0,a0,0x2
80001394:	00002797          	auipc	a5,0x2
80001398:	e3c78793          	addi	a5,a5,-452 # 800031d0 <lut>
8000139c:	00a787b3          	add	a5,a5,a0
800013a0:	0007a783          	lw	a5,0(a5)
800013a4:	00058513          	mv	a0,a1
800013a8:	00078067          	jr	a5

800013ac <__am_timer_init>:
800013ac:	a00007b7          	lui	a5,0xa0000
800013b0:	04c7a703          	lw	a4,76(a5) # a000004c <_end+0x1fff404c>
800013b4:	0487a683          	lw	a3,72(a5)
800013b8:	04c7a703          	lw	a4,76(a5)
800013bc:	00002797          	auipc	a5,0x2
800013c0:	2cc78793          	addi	a5,a5,716 # 80003688 <base_time>
800013c4:	00d7a023          	sw	a3,0(a5)
800013c8:	00e7a223          	sw	a4,4(a5)
800013cc:	00008067          	ret

800013d0 <__am_timer_uptime>:
800013d0:	a00007b7          	lui	a5,0xa0000
800013d4:	04c7a703          	lw	a4,76(a5) # a000004c <_end+0x1fff404c>
800013d8:	00002617          	auipc	a2,0x2
800013dc:	2b060613          	addi	a2,a2,688 # 80003688 <base_time>
800013e0:	0487a683          	lw	a3,72(a5)
800013e4:	00062703          	lw	a4,0(a2)
800013e8:	04c7a783          	lw	a5,76(a5)
800013ec:	00462603          	lw	a2,4(a2)
800013f0:	40e68733          	sub	a4,a3,a4
800013f4:	00e6b6b3          	sltu	a3,a3,a4
800013f8:	40c787b3          	sub	a5,a5,a2
800013fc:	40d787b3          	sub	a5,a5,a3
80001400:	00e52023          	sw	a4,0(a0)
80001404:	00f52223          	sw	a5,4(a0)
80001408:	00008067          	ret

8000140c <__am_timer_rtc>:
8000140c:	76c00793          	li	a5,1900
80001410:	00052a23          	sw	zero,20(a0)
80001414:	00052823          	sw	zero,16(a0)
80001418:	00052623          	sw	zero,12(a0)
8000141c:	00052423          	sw	zero,8(a0)
80001420:	00052223          	sw	zero,4(a0)
80001424:	00f52023          	sw	a5,0(a0)
80001428:	00008067          	ret

8000142c <__am_input_keybrd>:
8000142c:	a00007b7          	lui	a5,0xa0000
80001430:	0607a783          	lw	a5,96(a5) # a0000060 <_end+0x1fff4060>
80001434:	00f7d713          	srli	a4,a5,0xf
80001438:	01179793          	slli	a5,a5,0x11
8000143c:	00177713          	andi	a4,a4,1
80001440:	0117d793          	srli	a5,a5,0x11
80001444:	00e50023          	sb	a4,0(a0)
80001448:	00f52223          	sw	a5,4(a0)
8000144c:	00008067          	ret

80001450 <__am_gpu_init>:
80001450:	a00007b7          	lui	a5,0xa0000
80001454:	1007a783          	lw	a5,256(a5) # a0000100 <_end+0x1fff4100>
80001458:	0107d713          	srli	a4,a5,0x10
8000145c:	01079793          	slli	a5,a5,0x10
80001460:	0107d793          	srli	a5,a5,0x10
80001464:	00002697          	auipc	a3,0x2
80001468:	22e6a823          	sw	a4,560(a3) # 80003694 <width>
8000146c:	00002717          	auipc	a4,0x2
80001470:	22f72223          	sw	a5,548(a4) # 80003690 <height>
80001474:	00008067          	ret

80001478 <__am_gpu_config>:
80001478:	00002697          	auipc	a3,0x2
8000147c:	21c68693          	addi	a3,a3,540 # 80003694 <width>
80001480:	0006a703          	lw	a4,0(a3)
80001484:	00002617          	auipc	a2,0x2
80001488:	20c60613          	addi	a2,a2,524 # 80003690 <height>
8000148c:	00070663          	beqz	a4,80001498 <__am_gpu_config+0x20>
80001490:	00062783          	lw	a5,0(a2)
80001494:	02079063          	bnez	a5,800014b4 <__am_gpu_config+0x3c>
80001498:	a00007b7          	lui	a5,0xa0000
8000149c:	1007a783          	lw	a5,256(a5) # a0000100 <_end+0x1fff4100>
800014a0:	0107d713          	srli	a4,a5,0x10
800014a4:	01079793          	slli	a5,a5,0x10
800014a8:	0107d793          	srli	a5,a5,0x10
800014ac:	00e6a023          	sw	a4,0(a3)
800014b0:	00f62023          	sw	a5,0(a2)
800014b4:	02f706b3          	mul	a3,a4,a5
800014b8:	00100613          	li	a2,1
800014bc:	00f52423          	sw	a5,8(a0)
800014c0:	00c51023          	sh	a2,0(a0)
800014c4:	00e52223          	sw	a4,4(a0)
800014c8:	00269793          	slli	a5,a3,0x2
800014cc:	00f52623          	sw	a5,12(a0)
800014d0:	00008067          	ret

800014d4 <__am_gpu_fbdraw>:
800014d4:	00002717          	auipc	a4,0x2
800014d8:	1c070713          	addi	a4,a4,448 # 80003694 <width>
800014dc:	00072303          	lw	t1,0(a4)
800014e0:	00002697          	auipc	a3,0x2
800014e4:	1b068693          	addi	a3,a3,432 # 80003690 <height>
800014e8:	0a030863          	beqz	t1,80001598 <__am_gpu_fbdraw+0xc4>
800014ec:	0006a783          	lw	a5,0(a3)
800014f0:	0a078463          	beqz	a5,80001598 <__am_gpu_fbdraw+0xc4>
800014f4:	00052703          	lw	a4,0(a0)
800014f8:	0c677263          	bgeu	a4,t1,800015bc <__am_gpu_fbdraw+0xe8>
800014fc:	00452783          	lw	a5,4(a0)
80001500:	0006a683          	lw	a3,0(a3)
80001504:	0ad7fc63          	bgeu	a5,a3,800015bc <__am_gpu_fbdraw+0xe8>
80001508:	00c52603          	lw	a2,12(a0)
8000150c:	00852e83          	lw	t4,8(a0)
80001510:	01052f03          	lw	t5,16(a0)
80001514:	00c705b3          	add	a1,a4,a2
80001518:	00060e13          	mv	t3,a2
8000151c:	00b37463          	bgeu	t1,a1,80001524 <__am_gpu_fbdraw+0x50>
80001520:	40e30e33          	sub	t3,t1,a4
80001524:	01e785b3          	add	a1,a5,t5
80001528:	08b6fc63          	bgeu	a3,a1,800015c0 <__am_gpu_fbdraw+0xec>
8000152c:	40f68f33          	sub	t5,a3,a5
80001530:	00000893          	li	a7,0
80001534:	a1000837          	lui	a6,0xa1000
80001538:	011787b3          	add	a5,a5,a7
8000153c:	026787b3          	mul	a5,a5,t1
80001540:	03160633          	mul	a2,a2,a7
80001544:	00e786b3          	add	a3,a5,a4
80001548:	020e0c63          	beqz	t3,80001580 <__am_gpu_fbdraw+0xac>
8000154c:	00261793          	slli	a5,a2,0x2
80001550:	00ce0633          	add	a2,t3,a2
80001554:	00fe87b3          	add	a5,t4,a5
80001558:	00261613          	slli	a2,a2,0x2
8000155c:	00269693          	slli	a3,a3,0x2
80001560:	01d60633          	add	a2,a2,t4
80001564:	40f686b3          	sub	a3,a3,a5
80001568:	0007a583          	lw	a1,0(a5)
8000156c:	00d78733          	add	a4,a5,a3
80001570:	00e80733          	add	a4,a6,a4
80001574:	00b72023          	sw	a1,0(a4)
80001578:	00478793          	addi	a5,a5,4
8000157c:	fef616e3          	bne	a2,a5,80001568 <__am_gpu_fbdraw+0x94>
80001580:	00188893          	addi	a7,a7,1
80001584:	05e8f063          	bgeu	a7,t5,800015c4 <__am_gpu_fbdraw+0xf0>
80001588:	00c52603          	lw	a2,12(a0)
8000158c:	00452783          	lw	a5,4(a0)
80001590:	00052703          	lw	a4,0(a0)
80001594:	fa5ff06f          	j	80001538 <__am_gpu_fbdraw+0x64>
80001598:	a00007b7          	lui	a5,0xa0000
8000159c:	1007a783          	lw	a5,256(a5) # a0000100 <_end+0x1fff4100>
800015a0:	0107d313          	srli	t1,a5,0x10
800015a4:	00672023          	sw	t1,0(a4)
800015a8:	01079793          	slli	a5,a5,0x10
800015ac:	00052703          	lw	a4,0(a0)
800015b0:	0107d793          	srli	a5,a5,0x10
800015b4:	00f6a023          	sw	a5,0(a3)
800015b8:	f46762e3          	bltu	a4,t1,800014fc <__am_gpu_fbdraw+0x28>
800015bc:	00008067          	ret
800015c0:	f60f18e3          	bnez	t5,80001530 <__am_gpu_fbdraw+0x5c>
800015c4:	01454783          	lbu	a5,20(a0)
800015c8:	fe078ae3          	beqz	a5,800015bc <__am_gpu_fbdraw+0xe8>
800015cc:	a00007b7          	lui	a5,0xa0000
800015d0:	00100713          	li	a4,1
800015d4:	10e7a223          	sw	a4,260(a5) # a0000104 <_end+0x1fff4104>
800015d8:	00008067          	ret

800015dc <__am_gpu_status>:
800015dc:	00100793          	li	a5,1
800015e0:	00f50023          	sb	a5,0(a0)
800015e4:	00008067          	ret

800015e8 <__am_audio_init>:
800015e8:	a00007b7          	lui	a5,0xa0000
800015ec:	00100713          	li	a4,1
800015f0:	20e7a823          	sw	a4,528(a5) # a0000210 <_end+0x1fff4210>
800015f4:	00002717          	auipc	a4,0x2
800015f8:	0a072223          	sw	zero,164(a4) # 80003698 <app_wp>
800015fc:	2007ac23          	sw	zero,536(a5)
80001600:	00008067          	ret

80001604 <__am_audio_config>:
80001604:	a00007b7          	lui	a5,0xa0000
80001608:	20c7a783          	lw	a5,524(a5) # a000020c <_end+0x1fff420c>
8000160c:	00100713          	li	a4,1
80001610:	00e50023          	sb	a4,0(a0)
80001614:	00f52223          	sw	a5,4(a0)
80001618:	00008067          	ret

8000161c <__am_audio_ctrl>:
8000161c:	00052783          	lw	a5,0(a0)
80001620:	00078663          	beqz	a5,8000162c <__am_audio_ctrl+0x10>
80001624:	a0000737          	lui	a4,0xa0000
80001628:	20f72023          	sw	a5,512(a4) # a0000200 <_end+0x1fff4200>
8000162c:	00452783          	lw	a5,4(a0)
80001630:	00078663          	beqz	a5,8000163c <__am_audio_ctrl+0x20>
80001634:	a0000737          	lui	a4,0xa0000
80001638:	20f72223          	sw	a5,516(a4) # a0000204 <_end+0x1fff4204>
8000163c:	00852783          	lw	a5,8(a0)
80001640:	00078663          	beqz	a5,8000164c <__am_audio_ctrl+0x30>
80001644:	a0000737          	lui	a4,0xa0000
80001648:	20f72423          	sw	a5,520(a4) # a0000208 <_end+0x1fff4208>
8000164c:	00008067          	ret

80001650 <__am_audio_status>:
80001650:	a00007b7          	lui	a5,0xa0000
80001654:	2147a783          	lw	a5,532(a5) # a0000214 <_end+0x1fff4214>
80001658:	00f52023          	sw	a5,0(a0)
8000165c:	00008067          	ret

80001660 <__am_audio_play>:
80001660:	00052603          	lw	a2,0(a0)
80001664:	00452783          	lw	a5,4(a0)
80001668:	40c78733          	sub	a4,a5,a2
8000166c:	08c78663          	beq	a5,a2,800016f8 <__am_audio_play+0x98>
80001670:	a00007b7          	lui	a5,0xa0000
80001674:	20c7ae03          	lw	t3,524(a5) # a000020c <_end+0x1fff420c>
80001678:	2147a583          	lw	a1,532(a5)
8000167c:	40be05b3          	sub	a1,t3,a1
80001680:	06b76663          	bltu	a4,a1,800016ec <__am_audio_play+0x8c>
80001684:	06058263          	beqz	a1,800016e8 <__am_audio_play+0x88>
80001688:	00002e97          	auipc	t4,0x2
8000168c:	010e8e93          	addi	t4,t4,16 # 80003698 <app_wp>
80001690:	000ea683          	lw	a3,0(t4)
80001694:	00b68833          	add	a6,a3,a1
80001698:	070e6a63          	bltu	t3,a6,8000170c <__am_audio_play+0xac>
8000169c:	a1200737          	lui	a4,0xa1200
800016a0:	00060793          	mv	a5,a2
800016a4:	00e68733          	add	a4,a3,a4
800016a8:	00b60633          	add	a2,a2,a1
800016ac:	40f70733          	sub	a4,a4,a5
800016b0:	0007c883          	lbu	a7,0(a5)
800016b4:	00f706b3          	add	a3,a4,a5
800016b8:	00178793          	addi	a5,a5,1
800016bc:	01168023          	sb	a7,0(a3)
800016c0:	fef618e3          	bne	a2,a5,800016b0 <__am_audio_play+0x50>
800016c4:	a12007b7          	lui	a5,0xa1200
800016c8:	010ea023          	sw	a6,0(t4)
800016cc:	010585b3          	add	a1,a1,a6
800016d0:	a0000737          	lui	a4,0xa0000
800016d4:	21072c23          	sw	a6,536(a4) # a0000218 <_end+0x1fff4218>
800016d8:	01078833          	add	a6,a5,a6
800016dc:	00b787b3          	add	a5,a5,a1
800016e0:	01052023          	sw	a6,0(a0)
800016e4:	00f52223          	sw	a5,4(a0)
800016e8:	00008067          	ret
800016ec:	00070593          	mv	a1,a4
800016f0:	f8059ce3          	bnez	a1,80001688 <__am_audio_play+0x28>
800016f4:	ff5ff06f          	j	800016e8 <__am_audio_play+0x88>
800016f8:	00002717          	auipc	a4,0x2
800016fc:	fa072703          	lw	a4,-96(a4) # 80003698 <app_wp>
80001700:	a00007b7          	lui	a5,0xa0000
80001704:	20e7ac23          	sw	a4,536(a5) # a0000218 <_end+0x1fff4218>
80001708:	00008067          	ret
8000170c:	a1200337          	lui	t1,0xa1200
80001710:	40de07b3          	sub	a5,t3,a3
80001714:	00668333          	add	t1,a3,t1
80001718:	00c78f33          	add	t5,a5,a2
8000171c:	00060713          	mv	a4,a2
80001720:	40c30333          	sub	t1,t1,a2
80001724:	00078c63          	beqz	a5,8000173c <__am_audio_play+0xdc>
80001728:	00074883          	lbu	a7,0(a4)
8000172c:	00e30833          	add	a6,t1,a4
80001730:	00170713          	addi	a4,a4,1
80001734:	01180023          	sb	a7,0(a6) # a1000000 <_end+0x20ff4000>
80001738:	ffe718e3          	bne	a4,t5,80001728 <__am_audio_play+0xc8>
8000173c:	41c686b3          	sub	a3,a3,t3
80001740:	a1200737          	lui	a4,0xa1200
80001744:	00b68833          	add	a6,a3,a1
80001748:	00f607b3          	add	a5,a2,a5
8000174c:	00e686b3          	add	a3,a3,a4
80001750:	00f808b3          	add	a7,a6,a5
80001754:	40c68733          	sub	a4,a3,a2
80001758:	f60806e3          	beqz	a6,800016c4 <__am_audio_play+0x64>
8000175c:	0007c603          	lbu	a2,0(a5)
80001760:	00f706b3          	add	a3,a4,a5
80001764:	00178793          	addi	a5,a5,1
80001768:	00c68023          	sb	a2,0(a3)
8000176c:	f5178ce3          	beq	a5,a7,800016c4 <__am_audio_play+0x64>
80001770:	0007c603          	lbu	a2,0(a5)
80001774:	00f706b3          	add	a3,a4,a5
80001778:	00178793          	addi	a5,a5,1
8000177c:	00c68023          	sb	a2,0(a3)
80001780:	fd179ee3          	bne	a5,a7,8000175c <__am_audio_play+0xfc>
80001784:	f41ff06f          	j	800016c4 <__am_audio_play+0x64>

80001788 <__am_disk_config>:
80001788:	00050023          	sb	zero,0(a0)
8000178c:	00008067          	ret

80001790 <__am_disk_status>:
80001790:	00008067          	ret

80001794 <__am_disk_blkio>:
80001794:	00008067          	ret

80001798 <am_itoa.part.0>:
80001798:	00000e13          	li	t3,0
8000179c:	00055663          	bgez	a0,800017a8 <am_itoa.part.0+0x10>
800017a0:	40a00533          	neg	a0,a0
800017a4:	00100e13          	li	t3,1
800017a8:	00000713          	li	a4,0
800017ac:	00a00813          	li	a6,10
800017b0:	00900313          	li	t1,9
800017b4:	030577b3          	remu	a5,a0,a6
800017b8:	00070693          	mv	a3,a4
800017bc:	00170713          	addi	a4,a4,1 # a1200001 <_end+0x211f4001>
800017c0:	00e58633          	add	a2,a1,a4
800017c4:	00050893          	mv	a7,a0
800017c8:	03078793          	addi	a5,a5,48
800017cc:	fef60fa3          	sb	a5,-1(a2)
800017d0:	03055533          	divu	a0,a0,a6
800017d4:	ff1360e3          	bltu	t1,a7,800017b4 <am_itoa.part.0+0x1c>
800017d8:	040e0463          	beqz	t3,80001820 <am_itoa.part.0+0x88>
800017dc:	02d00793          	li	a5,45
800017e0:	00d586b3          	add	a3,a1,a3
800017e4:	00f60023          	sb	a5,0(a2)
800017e8:	00068123          	sb	zero,2(a3)
800017ec:	00070693          	mv	a3,a4
800017f0:	00d58733          	add	a4,a1,a3
800017f4:	00000793          	li	a5,0
800017f8:	00074503          	lbu	a0,0(a4)
800017fc:	0005c603          	lbu	a2,0(a1)
80001800:	00178793          	addi	a5,a5,1
80001804:	00a58023          	sb	a0,0(a1)
80001808:	00c70023          	sb	a2,0(a4)
8000180c:	40f68633          	sub	a2,a3,a5
80001810:	00158593          	addi	a1,a1,1
80001814:	fff70713          	addi	a4,a4,-1
80001818:	fec7c0e3          	blt	a5,a2,800017f8 <am_itoa.part.0+0x60>
8000181c:	00008067          	ret
80001820:	00060023          	sb	zero,0(a2)
80001824:	fc0696e3          	bnez	a3,800017f0 <am_itoa.part.0+0x58>
80001828:	00008067          	ret

8000182c <printf>:
8000182c:	f8010113          	addi	sp,sp,-128
80001830:	04912a23          	sw	s1,84(sp)
80001834:	06f12a23          	sw	a5,116(sp)
80001838:	04112e23          	sw	ra,92(sp)
8000183c:	04812c23          	sw	s0,88(sp)
80001840:	05212823          	sw	s2,80(sp)
80001844:	05312623          	sw	s3,76(sp)
80001848:	05412423          	sw	s4,72(sp)
8000184c:	05512223          	sw	s5,68(sp)
80001850:	05612023          	sw	s6,64(sp)
80001854:	03712e23          	sw	s7,60(sp)
80001858:	03812c23          	sw	s8,56(sp)
8000185c:	03912a23          	sw	s9,52(sp)
80001860:	03a12823          	sw	s10,48(sp)
80001864:	06b12223          	sw	a1,100(sp)
80001868:	06c12423          	sw	a2,104(sp)
8000186c:	06d12623          	sw	a3,108(sp)
80001870:	06e12823          	sw	a4,112(sp)
80001874:	07012c23          	sw	a6,120(sp)
80001878:	07112e23          	sw	a7,124(sp)
8000187c:	00050313          	mv	t1,a0
80001880:	00054503          	lbu	a0,0(a0)
80001884:	06410793          	addi	a5,sp,100
80001888:	00f12623          	sw	a5,12(sp)
8000188c:	00000493          	li	s1,0
80001890:	06050463          	beqz	a0,800018f8 <printf+0xcc>
80001894:	02500913          	li	s2,37
80001898:	03000a13          	li	s4,48
8000189c:	06400993          	li	s3,100
800018a0:	06c00b93          	li	s7,108
800018a4:	07300b13          	li	s6,115
800018a8:	06300a93          	li	s5,99
800018ac:	00130413          	addi	s0,t1,1 # a1200001 <_end+0x211f4001>
800018b0:	1b251463          	bne	a0,s2,80001a58 <printf+0x22c>
800018b4:	00134503          	lbu	a0,1(t1)
800018b8:	00000c93          	li	s9,0
800018bc:	00000c13          	li	s8,0
800018c0:	07450a63          	beq	a0,s4,80001934 <printf+0x108>
800018c4:	0b350c63          	beq	a0,s3,8000197c <printf+0x150>
800018c8:	12a9ee63          	bltu	s3,a0,80001a04 <printf+0x1d8>
800018cc:	1b250c63          	beq	a0,s2,80001a84 <printf+0x258>
800018d0:	19551c63          	bne	a0,s5,80001a68 <printf+0x23c>
800018d4:	00c12783          	lw	a5,12(sp)
800018d8:	00148493          	addi	s1,s1,1
800018dc:	0007c503          	lbu	a0,0(a5)
800018e0:	00478793          	addi	a5,a5,4
800018e4:	00f12623          	sw	a5,12(sp)
800018e8:	965ff0ef          	jal	ra,8000124c <putch>
800018ec:	00140313          	addi	t1,s0,1
800018f0:	00034503          	lbu	a0,0(t1)
800018f4:	fa051ce3          	bnez	a0,800018ac <printf+0x80>
800018f8:	05c12083          	lw	ra,92(sp)
800018fc:	05812403          	lw	s0,88(sp)
80001900:	05012903          	lw	s2,80(sp)
80001904:	04c12983          	lw	s3,76(sp)
80001908:	04812a03          	lw	s4,72(sp)
8000190c:	04412a83          	lw	s5,68(sp)
80001910:	04012b03          	lw	s6,64(sp)
80001914:	03c12b83          	lw	s7,60(sp)
80001918:	03812c03          	lw	s8,56(sp)
8000191c:	03412c83          	lw	s9,52(sp)
80001920:	03012d03          	lw	s10,48(sp)
80001924:	00048513          	mv	a0,s1
80001928:	05412483          	lw	s1,84(sp)
8000192c:	08010113          	addi	sp,sp,128
80001930:	00008067          	ret
80001934:	00234503          	lbu	a0,2(t1)
80001938:	00900793          	li	a5,9
8000193c:	00230413          	addi	s0,t1,2
80001940:	fd050713          	addi	a4,a0,-48
80001944:	0ff77693          	zext.b	a3,a4
80001948:	02d7e663          	bltu	a5,a3,80001974 <printf+0x148>
8000194c:	00900693          	li	a3,9
80001950:	00144503          	lbu	a0,1(s0)
80001954:	002c1793          	slli	a5,s8,0x2
80001958:	018787b3          	add	a5,a5,s8
8000195c:	00179793          	slli	a5,a5,0x1
80001960:	00f70c33          	add	s8,a4,a5
80001964:	fd050713          	addi	a4,a0,-48
80001968:	0ff77793          	zext.b	a5,a4
8000196c:	00140413          	addi	s0,s0,1
80001970:	fef6f0e3          	bgeu	a3,a5,80001950 <printf+0x124>
80001974:	00100c93          	li	s9,1
80001978:	f53518e3          	bne	a0,s3,800018c8 <printf+0x9c>
8000197c:	00c12783          	lw	a5,12(sp)
80001980:	0007ad03          	lw	s10,0(a5)
80001984:	00478793          	addi	a5,a5,4
80001988:	00f12623          	sw	a5,12(sp)
8000198c:	100d0663          	beqz	s10,80001a98 <printf+0x26c>
80001990:	01010593          	addi	a1,sp,16
80001994:	000d0513          	mv	a0,s10
80001998:	e01ff0ef          	jal	ra,80001798 <am_itoa.part.0>
8000199c:	01014783          	lbu	a5,16(sp)
800019a0:	1c078063          	beqz	a5,80001b60 <printf+0x334>
800019a4:	01114703          	lbu	a4,17(sp)
800019a8:	00000793          	li	a5,0
800019ac:	0080006f          	j	800019b4 <printf+0x188>
800019b0:	0016c703          	lbu	a4,1(a3)
800019b4:	00178793          	addi	a5,a5,1
800019b8:	01010693          	addi	a3,sp,16
800019bc:	00f686b3          	add	a3,a3,a5
800019c0:	fe0718e3          	bnez	a4,800019b0 <printf+0x184>
800019c4:	000d2d13          	slti	s10,s10,0
800019c8:	41a787b3          	sub	a5,a5,s10
800019cc:	0c0c9c63          	bnez	s9,80001aa4 <printf+0x278>
800019d0:	01014503          	lbu	a0,16(sp)
800019d4:	00048c13          	mv	s8,s1
800019d8:	02050063          	beqz	a0,800019f8 <printf+0x1cc>
800019dc:	871ff0ef          	jal	ra,8000124c <putch>
800019e0:	001c0c13          	addi	s8,s8,1
800019e4:	409c07b3          	sub	a5,s8,s1
800019e8:	01010713          	addi	a4,sp,16
800019ec:	00f707b3          	add	a5,a4,a5
800019f0:	0007c503          	lbu	a0,0(a5)
800019f4:	fe0514e3          	bnez	a0,800019dc <printf+0x1b0>
800019f8:	00140313          	addi	t1,s0,1
800019fc:	000c0493          	mv	s1,s8
80001a00:	ef1ff06f          	j	800018f0 <printf+0xc4>
80001a04:	05750463          	beq	a0,s7,80001a4c <printf+0x220>
80001a08:	07651063          	bne	a0,s6,80001a68 <printf+0x23c>
80001a0c:	00c12783          	lw	a5,12(sp)
80001a10:	00048c13          	mv	s8,s1
80001a14:	0007ac83          	lw	s9,0(a5)
80001a18:	00478793          	addi	a5,a5,4
80001a1c:	00f12623          	sw	a5,12(sp)
80001a20:	000cc503          	lbu	a0,0(s9)
80001a24:	fc050ae3          	beqz	a0,800019f8 <printf+0x1cc>
80001a28:	825ff0ef          	jal	ra,8000124c <putch>
80001a2c:	001c0c13          	addi	s8,s8,1
80001a30:	409c07b3          	sub	a5,s8,s1
80001a34:	00fc87b3          	add	a5,s9,a5
80001a38:	0007c503          	lbu	a0,0(a5)
80001a3c:	fe0516e3          	bnez	a0,80001a28 <printf+0x1fc>
80001a40:	00140313          	addi	t1,s0,1
80001a44:	000c0493          	mv	s1,s8
80001a48:	ea9ff06f          	j	800018f0 <printf+0xc4>
80001a4c:	00144783          	lbu	a5,1(s0)
80001a50:	09378463          	beq	a5,s3,80001ad8 <printf+0x2ac>
80001a54:	00140413          	addi	s0,s0,1
80001a58:	ff4ff0ef          	jal	ra,8000124c <putch>
80001a5c:	00148493          	addi	s1,s1,1
80001a60:	00040313          	mv	t1,s0
80001a64:	e8dff06f          	j	800018f0 <printf+0xc4>
80001a68:	02500513          	li	a0,37
80001a6c:	fe0ff0ef          	jal	ra,8000124c <putch>
80001a70:	00044503          	lbu	a0,0(s0)
80001a74:	00248493          	addi	s1,s1,2
80001a78:	fd4ff0ef          	jal	ra,8000124c <putch>
80001a7c:	00040313          	mv	t1,s0
80001a80:	e71ff06f          	j	800018f0 <printf+0xc4>
80001a84:	02500513          	li	a0,37
80001a88:	fc4ff0ef          	jal	ra,8000124c <putch>
80001a8c:	00148493          	addi	s1,s1,1
80001a90:	00140313          	addi	t1,s0,1
80001a94:	e5dff06f          	j	800018f0 <printf+0xc4>
80001a98:	01411823          	sh	s4,16(sp)
80001a9c:	00100793          	li	a5,1
80001aa0:	f20c88e3          	beqz	s9,800019d0 <printf+0x1a4>
80001aa4:	40fc0c33          	sub	s8,s8,a5
80001aa8:	f38054e3          	blez	s8,800019d0 <printf+0x1a4>
80001aac:	00000c93          	li	s9,0
80001ab0:	001c8c93          	addi	s9,s9,1
80001ab4:	03000513          	li	a0,48
80001ab8:	f94ff0ef          	jal	ra,8000124c <putch>
80001abc:	ff8ccae3          	blt	s9,s8,80001ab0 <printf+0x284>
80001ac0:	00148493          	addi	s1,s1,1
80001ac4:	00000793          	li	a5,0
80001ac8:	01805463          	blez	s8,80001ad0 <printf+0x2a4>
80001acc:	fffc0793          	addi	a5,s8,-1
80001ad0:	009784b3          	add	s1,a5,s1
80001ad4:	efdff06f          	j	800019d0 <printf+0x1a4>
80001ad8:	00c12783          	lw	a5,12(sp)
80001adc:	0007ad03          	lw	s10,0(a5)
80001ae0:	00478793          	addi	a5,a5,4
80001ae4:	00f12623          	sw	a5,12(sp)
80001ae8:	080d0063          	beqz	s10,80001b68 <printf+0x33c>
80001aec:	01010593          	addi	a1,sp,16
80001af0:	000d0513          	mv	a0,s10
80001af4:	ca5ff0ef          	jal	ra,80001798 <am_itoa.part.0>
80001af8:	01014783          	lbu	a5,16(sp)
80001afc:	0a078663          	beqz	a5,80001ba8 <printf+0x37c>
80001b00:	01114703          	lbu	a4,17(sp)
80001b04:	00000793          	li	a5,0
80001b08:	0080006f          	j	80001b10 <printf+0x2e4>
80001b0c:	0016c703          	lbu	a4,1(a3)
80001b10:	00178793          	addi	a5,a5,1
80001b14:	01010693          	addi	a3,sp,16
80001b18:	00f686b3          	add	a3,a3,a5
80001b1c:	fe0718e3          	bnez	a4,80001b0c <printf+0x2e0>
80001b20:	000d2d13          	slti	s10,s10,0
80001b24:	41a787b3          	sub	a5,a5,s10
80001b28:	040c9663          	bnez	s9,80001b74 <printf+0x348>
80001b2c:	01014503          	lbu	a0,16(sp)
80001b30:	00048c13          	mv	s8,s1
80001b34:	02050063          	beqz	a0,80001b54 <printf+0x328>
80001b38:	f14ff0ef          	jal	ra,8000124c <putch>
80001b3c:	001c0c13          	addi	s8,s8,1
80001b40:	409c07b3          	sub	a5,s8,s1
80001b44:	01010713          	addi	a4,sp,16
80001b48:	00f707b3          	add	a5,a4,a5
80001b4c:	0007c503          	lbu	a0,0(a5)
80001b50:	fe0514e3          	bnez	a0,80001b38 <printf+0x30c>
80001b54:	00240313          	addi	t1,s0,2
80001b58:	000c0493          	mv	s1,s8
80001b5c:	d95ff06f          	j	800018f0 <printf+0xc4>
80001b60:	00000793          	li	a5,0
80001b64:	e61ff06f          	j	800019c4 <printf+0x198>
80001b68:	01411823          	sh	s4,16(sp)
80001b6c:	00100793          	li	a5,1
80001b70:	fb9ff06f          	j	80001b28 <printf+0x2fc>
80001b74:	40fc0c33          	sub	s8,s8,a5
80001b78:	fb805ae3          	blez	s8,80001b2c <printf+0x300>
80001b7c:	00000c93          	li	s9,0
80001b80:	001c8c93          	addi	s9,s9,1
80001b84:	03000513          	li	a0,48
80001b88:	ec4ff0ef          	jal	ra,8000124c <putch>
80001b8c:	ff8ccae3          	blt	s9,s8,80001b80 <printf+0x354>
80001b90:	00148493          	addi	s1,s1,1
80001b94:	00000793          	li	a5,0
80001b98:	01805463          	blez	s8,80001ba0 <printf+0x374>
80001b9c:	fffc0793          	addi	a5,s8,-1
80001ba0:	009784b3          	add	s1,a5,s1
80001ba4:	f89ff06f          	j	80001b2c <printf+0x300>
80001ba8:	00000793          	li	a5,0
80001bac:	f75ff06f          	j	80001b20 <printf+0x2f4>

80001bb0 <snprintf>:
80001bb0:	f9010113          	addi	sp,sp,-112
80001bb4:	05212023          	sw	s2,64(sp)
80001bb8:	04112623          	sw	ra,76(sp)
80001bbc:	04812423          	sw	s0,72(sp)
80001bc0:	04912223          	sw	s1,68(sp)
80001bc4:	03312e23          	sw	s3,60(sp)
80001bc8:	03412c23          	sw	s4,56(sp)
80001bcc:	03512a23          	sw	s5,52(sp)
80001bd0:	03612823          	sw	s6,48(sp)
80001bd4:	03712623          	sw	s7,44(sp)
80001bd8:	03812423          	sw	s8,40(sp)
80001bdc:	03912223          	sw	s9,36(sp)
80001be0:	04d12e23          	sw	a3,92(sp)
80001be4:	06e12023          	sw	a4,96(sp)
80001be8:	06f12223          	sw	a5,100(sp)
80001bec:	07012423          	sw	a6,104(sp)
80001bf0:	07112623          	sw	a7,108(sp)
80001bf4:	00060913          	mv	s2,a2
80001bf8:	1a050e63          	beqz	a0,80001db4 <snprintf+0x204>
80001bfc:	00050413          	mv	s0,a0
80001c00:	00058b13          	mv	s6,a1
80001c04:	00000513          	li	a0,0
80001c08:	02059c63          	bnez	a1,80001c40 <snprintf+0x90>
80001c0c:	04c12083          	lw	ra,76(sp)
80001c10:	04812403          	lw	s0,72(sp)
80001c14:	04412483          	lw	s1,68(sp)
80001c18:	04012903          	lw	s2,64(sp)
80001c1c:	03c12983          	lw	s3,60(sp)
80001c20:	03812a03          	lw	s4,56(sp)
80001c24:	03412a83          	lw	s5,52(sp)
80001c28:	03012b03          	lw	s6,48(sp)
80001c2c:	02c12b83          	lw	s7,44(sp)
80001c30:	02812c03          	lw	s8,40(sp)
80001c34:	02412c83          	lw	s9,36(sp)
80001c38:	07010113          	addi	sp,sp,112
80001c3c:	00008067          	ret
80001c40:	00064783          	lbu	a5,0(a2)
80001c44:	05c10713          	addi	a4,sp,92
80001c48:	00e12423          	sw	a4,8(sp)
80001c4c:	04078663          	beqz	a5,80001c98 <snprintf+0xe8>
80001c50:	fff58993          	addi	s3,a1,-1
80001c54:	04098263          	beqz	s3,80001c98 <snprintf+0xe8>
80001c58:	00000493          	li	s1,0
80001c5c:	02500a13          	li	s4,37
80001c60:	06400a93          	li	s5,100
80001c64:	03000c93          	li	s9,48
80001c68:	07300c13          	li	s8,115
80001c6c:	06300b93          	li	s7,99
80001c70:	03478863          	beq	a5,s4,80001ca0 <snprintf+0xf0>
80001c74:	00f40023          	sb	a5,0(s0)
80001c78:	00190913          	addi	s2,s2,1
80001c7c:	00148493          	addi	s1,s1,1
80001c80:	00140413          	addi	s0,s0,1
80001c84:	00094783          	lbu	a5,0(s2)
80001c88:	00078463          	beqz	a5,80001c90 <snprintf+0xe0>
80001c8c:	ff34e2e3          	bltu	s1,s3,80001c70 <snprintf+0xc0>
80001c90:	00048513          	mv	a0,s1
80001c94:	f764fce3          	bgeu	s1,s6,80001c0c <snprintf+0x5c>
80001c98:	00040023          	sb	zero,0(s0)
80001c9c:	f71ff06f          	j	80001c0c <snprintf+0x5c>
80001ca0:	00194783          	lbu	a5,1(s2)
80001ca4:	00290913          	addi	s2,s2,2
80001ca8:	09578663          	beq	a5,s5,80001d34 <snprintf+0x184>
80001cac:	02fae663          	bltu	s5,a5,80001cd8 <snprintf+0x128>
80001cb0:	0f478063          	beq	a5,s4,80001d90 <snprintf+0x1e0>
80001cb4:	fd7798e3          	bne	a5,s7,80001c84 <snprintf+0xd4>
80001cb8:	00812783          	lw	a5,8(sp)
80001cbc:	00140413          	addi	s0,s0,1
80001cc0:	00148493          	addi	s1,s1,1
80001cc4:	0007a703          	lw	a4,0(a5)
80001cc8:	00478793          	addi	a5,a5,4
80001ccc:	00f12423          	sw	a5,8(sp)
80001cd0:	fee40fa3          	sb	a4,-1(s0)
80001cd4:	fb1ff06f          	j	80001c84 <snprintf+0xd4>
80001cd8:	fb8796e3          	bne	a5,s8,80001c84 <snprintf+0xd4>
80001cdc:	00812783          	lw	a5,8(sp)
80001ce0:	0007a683          	lw	a3,0(a5)
80001ce4:	00478793          	addi	a5,a5,4
80001ce8:	00f12423          	sw	a5,8(sp)
80001cec:	0006c703          	lbu	a4,0(a3)
80001cf0:	0c070863          	beqz	a4,80001dc0 <snprintf+0x210>
80001cf4:	0d34f663          	bgeu	s1,s3,80001dc0 <snprintf+0x210>
80001cf8:	40998533          	sub	a0,s3,s1
80001cfc:	00a40533          	add	a0,s0,a0
80001d00:	00040793          	mv	a5,s0
80001d04:	0080006f          	j	80001d0c <snprintf+0x15c>
80001d08:	02a78063          	beq	a5,a0,80001d28 <snprintf+0x178>
80001d0c:	00e78023          	sb	a4,0(a5)
80001d10:	0016c703          	lbu	a4,1(a3)
80001d14:	00178793          	addi	a5,a5,1
80001d18:	00978633          	add	a2,a5,s1
80001d1c:	00168693          	addi	a3,a3,1
80001d20:	40860633          	sub	a2,a2,s0
80001d24:	fe0712e3          	bnez	a4,80001d08 <snprintf+0x158>
80001d28:	00078413          	mv	s0,a5
80001d2c:	00060493          	mv	s1,a2
80001d30:	f55ff06f          	j	80001c84 <snprintf+0xd4>
80001d34:	00812783          	lw	a5,8(sp)
80001d38:	0007a503          	lw	a0,0(a5)
80001d3c:	00478793          	addi	a5,a5,4
80001d40:	00f12423          	sw	a5,8(sp)
80001d44:	04050e63          	beqz	a0,80001da0 <snprintf+0x1f0>
80001d48:	00c10593          	addi	a1,sp,12
80001d4c:	a4dff0ef          	jal	ra,80001798 <am_itoa.part.0>
80001d50:	00c14683          	lbu	a3,12(sp)
80001d54:	f20688e3          	beqz	a3,80001c84 <snprintf+0xd4>
80001d58:	00048793          	mv	a5,s1
80001d5c:	0134e663          	bltu	s1,s3,80001d68 <snprintf+0x1b8>
80001d60:	f25ff06f          	j	80001c84 <snprintf+0xd4>
80001d64:	05378463          	beq	a5,s3,80001dac <snprintf+0x1fc>
80001d68:	00178793          	addi	a5,a5,1
80001d6c:	40978733          	sub	a4,a5,s1
80001d70:	00c10613          	addi	a2,sp,12
80001d74:	00e60733          	add	a4,a2,a4
80001d78:	00d40023          	sb	a3,0(s0)
80001d7c:	00074683          	lbu	a3,0(a4)
80001d80:	00140413          	addi	s0,s0,1
80001d84:	fe0690e3          	bnez	a3,80001d64 <snprintf+0x1b4>
80001d88:	00078493          	mv	s1,a5
80001d8c:	ef9ff06f          	j	80001c84 <snprintf+0xd4>
80001d90:	01440023          	sb	s4,0(s0)
80001d94:	00148493          	addi	s1,s1,1
80001d98:	00140413          	addi	s0,s0,1
80001d9c:	ee9ff06f          	j	80001c84 <snprintf+0xd4>
80001da0:	01911623          	sh	s9,12(sp)
80001da4:	03000693          	li	a3,48
80001da8:	fb1ff06f          	j	80001d58 <snprintf+0x1a8>
80001dac:	00098493          	mv	s1,s3
80001db0:	ed5ff06f          	j	80001c84 <snprintf+0xd4>
80001db4:	00060513          	mv	a0,a2
80001db8:	398000ef          	jal	ra,80002150 <strlen>
80001dbc:	e51ff06f          	j	80001c0c <snprintf+0x5c>
80001dc0:	00048613          	mv	a2,s1
80001dc4:	00060493          	mv	s1,a2
80001dc8:	ebdff06f          	j	80001c84 <snprintf+0xd4>

80001dcc <rand>:
80001dcc:	00001697          	auipc	a3,0x1
80001dd0:	60868693          	addi	a3,a3,1544 # 800033d4 <next>
80001dd4:	0006a783          	lw	a5,0(a3)
80001dd8:	41c65737          	lui	a4,0x41c65
80001ddc:	e6d70713          	addi	a4,a4,-403 # 41c64e6d <_entry_offset+0x41c64e6d>
80001de0:	02e787b3          	mul	a5,a5,a4
80001de4:	00003737          	lui	a4,0x3
80001de8:	03970713          	addi	a4,a4,57 # 3039 <_entry_offset+0x3039>
80001dec:	00e787b3          	add	a5,a5,a4
80001df0:	00179513          	slli	a0,a5,0x1
80001df4:	00f6a023          	sw	a5,0(a3)
80001df8:	01155513          	srli	a0,a0,0x11
80001dfc:	00008067          	ret

80001e00 <srand>:
80001e00:	00001797          	auipc	a5,0x1
80001e04:	5ca7aa23          	sw	a0,1492(a5) # 800033d4 <next>
80001e08:	00008067          	ret

80001e0c <sbrk>:
80001e0c:	00002697          	auipc	a3,0x2
80001e10:	89c68693          	addi	a3,a3,-1892 # 800036a8 <heap_start>
80001e14:	0006a703          	lw	a4,0(a3)
80001e18:	00050793          	mv	a5,a0
80001e1c:	04070263          	beqz	a4,80001e60 <sbrk+0x54>
80001e20:	00002717          	auipc	a4,0x2
80001e24:	88070713          	addi	a4,a4,-1920 # 800036a0 <heap_brk>
80001e28:	00072503          	lw	a0,0(a4)
80001e2c:	02f05263          	blez	a5,80001e50 <sbrk+0x44>
80001e30:	00f507b3          	add	a5,a0,a5
80001e34:	00002697          	auipc	a3,0x2
80001e38:	8706a683          	lw	a3,-1936(a3) # 800036a4 <heap_end>
80001e3c:	00f6e663          	bltu	a3,a5,80001e48 <sbrk+0x3c>
80001e40:	00f72023          	sw	a5,0(a4)
80001e44:	00008067          	ret
80001e48:	fff00513          	li	a0,-1
80001e4c:	00008067          	ret
80001e50:	fe078ee3          	beqz	a5,80001e4c <sbrk+0x40>
80001e54:	00f507b3          	add	a5,a0,a5
80001e58:	00f72023          	sw	a5,0(a4)
80001e5c:	00008067          	ret
80001e60:	fffff737          	lui	a4,0xfffff
80001e64:	0000b517          	auipc	a0,0xb
80001e68:	19b50513          	addi	a0,a0,411 # 8000cfff <_end+0xfff>
80001e6c:	00e57533          	and	a0,a0,a4
80001e70:	02000637          	lui	a2,0x2000
80001e74:	00c50633          	add	a2,a0,a2
80001e78:	00002717          	auipc	a4,0x2
80001e7c:	82870713          	addi	a4,a4,-2008 # 800036a0 <heap_brk>
80001e80:	00a6a023          	sw	a0,0(a3)
80001e84:	00a72023          	sw	a0,0(a4)
80001e88:	00002697          	auipc	a3,0x2
80001e8c:	80c6ae23          	sw	a2,-2020(a3) # 800036a4 <heap_end>
80001e90:	f9dff06f          	j	80001e2c <sbrk+0x20>

80001e94 <malloc>:
80001e94:	24050063          	beqz	a0,800020d4 <malloc+0x240>
80001e98:	fd010113          	addi	sp,sp,-48
80001e9c:	02912223          	sw	s1,36(sp)
80001ea0:	00001497          	auipc	s1,0x1
80001ea4:	7fc48493          	addi	s1,s1,2044 # 8000369c <free_list>
80001ea8:	02812423          	sw	s0,40(sp)
80001eac:	03212023          	sw	s2,32(sp)
80001eb0:	00050413          	mv	s0,a0
80001eb4:	0000b917          	auipc	s2,0xb
80001eb8:	14b90913          	addi	s2,s2,331 # 8000cfff <_end+0xfff>
80001ebc:	fffff7b7          	lui	a5,0xfffff
80001ec0:	0004a503          	lw	a0,0(s1)
80001ec4:	00f97933          	and	s2,s2,a5
80001ec8:	01312e23          	sw	s3,28(sp)
80001ecc:	01412c23          	sw	s4,24(sp)
80001ed0:	020009b7          	lui	s3,0x2000
80001ed4:	00100a37          	lui	s4,0x100
80001ed8:	01512a23          	sw	s5,20(sp)
80001edc:	01812423          	sw	s8,8(sp)
80001ee0:	02112623          	sw	ra,44(sp)
80001ee4:	01612823          	sw	s6,16(sp)
80001ee8:	01712623          	sw	s7,12(sp)
80001eec:	00001c17          	auipc	s8,0x1
80001ef0:	7bcc0c13          	addi	s8,s8,1980 # 800036a8 <heap_start>
80001ef4:	013909b3          	add	s3,s2,s3
80001ef8:	01490ab3          	add	s5,s2,s4
80001efc:	000c2783          	lw	a5,0(s8)
80001f00:	00740413          	addi	s0,s0,7
80001f04:	ff847413          	andi	s0,s0,-8
80001f08:	0c078663          	beqz	a5,80001fd4 <malloc+0x140>
80001f0c:	10050a63          	beqz	a0,80002020 <malloc+0x18c>
80001f10:	00852683          	lw	a3,8(a0)
80001f14:	00452783          	lw	a5,4(a0)
80001f18:	00050b93          	mv	s7,a0
80001f1c:	000b8713          	mv	a4,s7
80001f20:	fff00593          	li	a1,-1
80001f24:	00000813          	li	a6,0
80001f28:	00000513          	li	a0,0
80001f2c:	00000613          	li	a2,0
80001f30:	02068a63          	beqz	a3,80001f64 <malloc+0xd0>
80001f34:	00072683          	lw	a3,0(a4)
80001f38:	0286e663          	bltu	a3,s0,80001f64 <malloc+0xd0>
80001f3c:	02b6f463          	bgeu	a3,a1,80001f64 <malloc+0xd0>
80001f40:	12078e63          	beqz	a5,8000207c <malloc+0x1e8>
80001f44:	00060813          	mv	a6,a2
80001f48:	00070513          	mv	a0,a4
80001f4c:	00068593          	mv	a1,a3
80001f50:	0087a683          	lw	a3,8(a5) # fffff008 <_end+0x7fff3008>
80001f54:	00070613          	mv	a2,a4
80001f58:	00078713          	mv	a4,a5
80001f5c:	0047a783          	lw	a5,4(a5)
80001f60:	fc069ae3          	bnez	a3,80001f34 <malloc+0xa0>
80001f64:	fe0796e3          	bnez	a5,80001f50 <malloc+0xbc>
80001f68:	10051263          	bnez	a0,8000206c <malloc+0x1d8>
80001f6c:	00640b13          	addi	s6,s0,6
80001f70:	001b1b13          	slli	s6,s6,0x1
80001f74:	000b0513          	mv	a0,s6
80001f78:	e95ff0ef          	jal	ra,80001e0c <sbrk>
80001f7c:	fff00793          	li	a5,-1
80001f80:	02f50063          	beq	a0,a5,80001fa0 <malloc+0x10c>
80001f84:	ff4b0b13          	addi	s6,s6,-12
80001f88:	00100793          	li	a5,1
80001f8c:	01652023          	sw	s6,0(a0)
80001f90:	00f52423          	sw	a5,8(a0)
80001f94:	01752223          	sw	s7,4(a0)
80001f98:	00a4a023          	sw	a0,0(s1)
80001f9c:	f60410e3          	bnez	s0,80001efc <malloc+0x68>
80001fa0:	00000513          	li	a0,0
80001fa4:	02c12083          	lw	ra,44(sp)
80001fa8:	02812403          	lw	s0,40(sp)
80001fac:	02412483          	lw	s1,36(sp)
80001fb0:	02012903          	lw	s2,32(sp)
80001fb4:	01c12983          	lw	s3,28(sp)
80001fb8:	01812a03          	lw	s4,24(sp)
80001fbc:	01412a83          	lw	s5,20(sp)
80001fc0:	01012b03          	lw	s6,16(sp)
80001fc4:	00c12b83          	lw	s7,12(sp)
80001fc8:	00812c03          	lw	s8,8(sp)
80001fcc:	03010113          	addi	sp,sp,48
80001fd0:	00008067          	ret
80001fd4:	00001797          	auipc	a5,0x1
80001fd8:	6cc78793          	addi	a5,a5,1740 # 800036a0 <heap_brk>
80001fdc:	012c2023          	sw	s2,0(s8)
80001fe0:	00001717          	auipc	a4,0x1
80001fe4:	6d372223          	sw	s3,1732(a4) # 800036a4 <heap_end>
80001fe8:	0127a023          	sw	s2,0(a5)
80001fec:	f20512e3          	bnez	a0,80001f10 <malloc+0x7c>
80001ff0:	0e091663          	bnez	s2,800020dc <malloc+0x248>
80001ff4:	0147a023          	sw	s4,0(a5)
80001ff8:	00000b93          	li	s7,0
80001ffc:	ff4a0793          	addi	a5,s4,-12 # ffff4 <_entry_offset+0xffff4>
80002000:	00fba023          	sw	a5,0(s7)
80002004:	00100793          	li	a5,1
80002008:	00fba423          	sw	a5,8(s7)
8000200c:	0174a023          	sw	s7,0(s1)
80002010:	000ba223          	sw	zero,4(s7)
80002014:	00000793          	li	a5,0
80002018:	00100693          	li	a3,1
8000201c:	f01ff06f          	j	80001f1c <malloc+0x88>
80002020:	00001797          	auipc	a5,0x1
80002024:	68078793          	addi	a5,a5,1664 # 800036a0 <heap_brk>
80002028:	0007ab83          	lw	s7,0(a5)
8000202c:	00001697          	auipc	a3,0x1
80002030:	6786a683          	lw	a3,1656(a3) # 800036a4 <heap_end>
80002034:	014b8733          	add	a4,s7,s4
80002038:	f6e6e4e3          	bltu	a3,a4,80001fa0 <malloc+0x10c>
8000203c:	00e7a023          	sw	a4,0(a5)
80002040:	fff00793          	li	a5,-1
80002044:	f4fb8ee3          	beq	s7,a5,80001fa0 <malloc+0x10c>
80002048:	ff4a0793          	addi	a5,s4,-12
8000204c:	00fba023          	sw	a5,0(s7)
80002050:	00100793          	li	a5,1
80002054:	00fba423          	sw	a5,8(s7)
80002058:	0174a023          	sw	s7,0(s1)
8000205c:	000ba223          	sw	zero,4(s7)
80002060:	00000793          	li	a5,0
80002064:	00100693          	li	a3,1
80002068:	eb5ff06f          	j	80001f1c <malloc+0x88>
8000206c:	00052683          	lw	a3,0(a0)
80002070:	00452783          	lw	a5,4(a0)
80002074:	00080613          	mv	a2,a6
80002078:	00050713          	mv	a4,a0
8000207c:	01c40593          	addi	a1,s0,28
80002080:	00b6fe63          	bgeu	a3,a1,8000209c <malloc+0x208>
80002084:	04060463          	beqz	a2,800020cc <malloc+0x238>
80002088:	00f62223          	sw	a5,4(a2) # 2000004 <_entry_offset+0x2000004>
8000208c:	00072423          	sw	zero,8(a4)
80002090:	00072223          	sw	zero,4(a4)
80002094:	00c70513          	addi	a0,a4,12
80002098:	f0dff06f          	j	80001fa4 <malloc+0x110>
8000209c:	00c40593          	addi	a1,s0,12
800020a0:	00b705b3          	add	a1,a4,a1
800020a4:	ff468693          	addi	a3,a3,-12
800020a8:	00f5a223          	sw	a5,4(a1)
800020ac:	408686b3          	sub	a3,a3,s0
800020b0:	00100793          	li	a5,1
800020b4:	00f5a423          	sw	a5,8(a1)
800020b8:	00d5a023          	sw	a3,0(a1)
800020bc:	00872023          	sw	s0,0(a4)
800020c0:	00b72223          	sw	a1,4(a4)
800020c4:	00058793          	mv	a5,a1
800020c8:	fbdff06f          	j	80002084 <malloc+0x1f0>
800020cc:	00f4a023          	sw	a5,0(s1)
800020d0:	fbdff06f          	j	8000208c <malloc+0x1f8>
800020d4:	00000513          	li	a0,0
800020d8:	00008067          	ret
800020dc:	00090b93          	mv	s7,s2
800020e0:	ed59e0e3          	bltu	s3,s5,80001fa0 <malloc+0x10c>
800020e4:	0157a023          	sw	s5,0(a5)
800020e8:	f15ff06f          	j	80001ffc <malloc+0x168>

800020ec <free>:
800020ec:	04050463          	beqz	a0,80002134 <free+0x48>
800020f0:	00001717          	auipc	a4,0x1
800020f4:	5ac70713          	addi	a4,a4,1452 # 8000369c <free_list>
800020f8:	00072783          	lw	a5,0(a4)
800020fc:	ff450693          	addi	a3,a0,-12
80002100:	00100613          	li	a2,1
80002104:	fec52e23          	sw	a2,-4(a0)
80002108:	fef52c23          	sw	a5,-8(a0)
8000210c:	00d72023          	sw	a3,0(a4)
80002110:	02078263          	beqz	a5,80002134 <free+0x48>
80002114:	0006a703          	lw	a4,0(a3)
80002118:	0047a603          	lw	a2,4(a5)
8000211c:	00c70713          	addi	a4,a4,12
80002120:	00e685b3          	add	a1,a3,a4
80002124:	00b78a63          	beq	a5,a1,80002138 <free+0x4c>
80002128:	00078693          	mv	a3,a5
8000212c:	00060793          	mv	a5,a2
80002130:	fe0792e3          	bnez	a5,80002114 <free+0x28>
80002134:	00008067          	ret
80002138:	0007a583          	lw	a1,0(a5)
8000213c:	00c6a223          	sw	a2,4(a3)
80002140:	00060793          	mv	a5,a2
80002144:	00e58733          	add	a4,a1,a4
80002148:	00e6a023          	sw	a4,0(a3)
8000214c:	fc5ff06f          	j	80002110 <free+0x24>

80002150 <strlen>:
80002150:	00054783          	lbu	a5,0(a0)
80002154:	00050713          	mv	a4,a0
80002158:	00000513          	li	a0,0
8000215c:	00078c63          	beqz	a5,80002174 <strlen+0x24>
80002160:	00150513          	addi	a0,a0,1
80002164:	00a707b3          	add	a5,a4,a0
80002168:	0007c783          	lbu	a5,0(a5)
8000216c:	fe079ae3          	bnez	a5,80002160 <strlen+0x10>
80002170:	00008067          	ret
80002174:	00008067          	ret

80002178 <memset>:
80002178:	0ff5f593          	zext.b	a1,a1
8000217c:	00c50733          	add	a4,a0,a2
80002180:	00050793          	mv	a5,a0
80002184:	00060863          	beqz	a2,80002194 <memset+0x1c>
80002188:	00178793          	addi	a5,a5,1
8000218c:	feb78fa3          	sb	a1,-1(a5)
80002190:	fee79ce3          	bne	a5,a4,80002188 <memset+0x10>
80002194:	00008067          	ret

80002198 <__udivmoddi4>:
80002198:	fe010113          	addi	sp,sp,-32
8000219c:	01212823          	sw	s2,16(sp)
800021a0:	01412423          	sw	s4,8(sp)
800021a4:	01512223          	sw	s5,4(sp)
800021a8:	01612023          	sw	s6,0(sp)
800021ac:	00112e23          	sw	ra,28(sp)
800021b0:	00812c23          	sw	s0,24(sp)
800021b4:	00912a23          	sw	s1,20(sp)
800021b8:	01312623          	sw	s3,12(sp)
800021bc:	00068a93          	mv	s5,a3
800021c0:	00050913          	mv	s2,a0
800021c4:	00060b13          	mv	s6,a2
800021c8:	00070a13          	mv	s4,a4
800021cc:	04059463          	bnez	a1,80002214 <__udivmoddi4+0x7c>
800021d0:	18069863          	bnez	a3,80002360 <__udivmoddi4+0x1c8>
800021d4:	00070863          	beqz	a4,800021e4 <__udivmoddi4+0x4c>
800021d8:	02c577b3          	remu	a5,a0,a2
800021dc:	00072223          	sw	zero,4(a4)
800021e0:	00f72023          	sw	a5,0(a4)
800021e4:	03695533          	divu	a0,s2,s6
800021e8:	00000593          	li	a1,0
800021ec:	01c12083          	lw	ra,28(sp)
800021f0:	01812403          	lw	s0,24(sp)
800021f4:	01412483          	lw	s1,20(sp)
800021f8:	01012903          	lw	s2,16(sp)
800021fc:	00c12983          	lw	s3,12(sp)
80002200:	00812a03          	lw	s4,8(sp)
80002204:	00412a83          	lw	s5,4(sp)
80002208:	00012b03          	lw	s6,0(sp)
8000220c:	02010113          	addi	sp,sp,32
80002210:	00008067          	ret
80002214:	00058993          	mv	s3,a1
80002218:	00058413          	mv	s0,a1
8000221c:	0e061863          	bnez	a2,8000230c <__udivmoddi4+0x174>
80002220:	1a068263          	beqz	a3,800023c4 <__udivmoddi4+0x22c>
80002224:	20050463          	beqz	a0,8000242c <__udivmoddi4+0x294>
80002228:	fff68793          	addi	a5,a3,-1
8000222c:	00d7f733          	and	a4,a5,a3
80002230:	22070c63          	beqz	a4,80002468 <__udivmoddi4+0x2d0>
80002234:	00068513          	mv	a0,a3
80002238:	28c000ef          	jal	ra,800024c4 <__clzsi2>
8000223c:	00050493          	mv	s1,a0
80002240:	00098513          	mv	a0,s3
80002244:	280000ef          	jal	ra,800024c4 <__clzsi2>
80002248:	40a48733          	sub	a4,s1,a0
8000224c:	01e00793          	li	a5,30
80002250:	16e7ec63          	bltu	a5,a4,800023c8 <__udivmoddi4+0x230>
80002254:	00170713          	addi	a4,a4,1
80002258:	02000e93          	li	t4,32
8000225c:	40ee8eb3          	sub	t4,t4,a4
80002260:	01d99633          	sll	a2,s3,t4
80002264:	00e956b3          	srl	a3,s2,a4
80002268:	00e9d7b3          	srl	a5,s3,a4
8000226c:	01d91eb3          	sll	t4,s2,t4
80002270:	00d66433          	or	s0,a2,a3
80002274:	00000493          	li	s1,0
80002278:	00000313          	li	t1,0
8000227c:	01fed693          	srli	a3,t4,0x1f
80002280:	00141813          	slli	a6,s0,0x1
80002284:	00d86833          	or	a6,a6,a3
80002288:	01f45413          	srli	s0,s0,0x1f
8000228c:	00179793          	slli	a5,a5,0x1
80002290:	0087e7b3          	or	a5,a5,s0
80002294:	410b0e33          	sub	t3,s6,a6
80002298:	01cb36b3          	sltu	a3,s6,t3
8000229c:	40fa88b3          	sub	a7,s5,a5
800022a0:	40d888b3          	sub	a7,a7,a3
800022a4:	001e3e13          	seqz	t3,t3
800022a8:	41c888b3          	sub	a7,a7,t3
800022ac:	41f8de13          	srai	t3,a7,0x1f
800022b0:	016e7433          	and	s0,t3,s6
800022b4:	40880433          	sub	s0,a6,s0
800022b8:	015e7e33          	and	t3,t3,s5
800022bc:	01f4d693          	srli	a3,s1,0x1f
800022c0:	001e9e93          	slli	t4,t4,0x1
800022c4:	00149493          	slli	s1,s1,0x1
800022c8:	00883833          	sltu	a6,a6,s0
800022cc:	41c787b3          	sub	a5,a5,t3
800022d0:	fff70713          	addi	a4,a4,-1
800022d4:	0064e4b3          	or	s1,s1,t1
800022d8:	00deeeb3          	or	t4,t4,a3
800022dc:	01f8d313          	srli	t1,a7,0x1f
800022e0:	410787b3          	sub	a5,a5,a6
800022e4:	f8071ce3          	bnez	a4,8000227c <__udivmoddi4+0xe4>
800022e8:	01f4d993          	srli	s3,s1,0x1f
800022ec:	001e9e93          	slli	t4,t4,0x1
800022f0:	00149493          	slli	s1,s1,0x1
800022f4:	0064e533          	or	a0,s1,t1
800022f8:	01d9e5b3          	or	a1,s3,t4
800022fc:	ee0a08e3          	beqz	s4,800021ec <__udivmoddi4+0x54>
80002300:	008a2023          	sw	s0,0(s4)
80002304:	00fa2223          	sw	a5,4(s4)
80002308:	ee5ff06f          	j	800021ec <__udivmoddi4+0x54>
8000230c:	06068663          	beqz	a3,80002378 <__udivmoddi4+0x1e0>
80002310:	00068513          	mv	a0,a3
80002314:	1b0000ef          	jal	ra,800024c4 <__clzsi2>
80002318:	00050493          	mv	s1,a0
8000231c:	00098513          	mv	a0,s3
80002320:	1a4000ef          	jal	ra,800024c4 <__clzsi2>
80002324:	40a48733          	sub	a4,s1,a0
80002328:	01f00793          	li	a5,31
8000232c:	08e7ee63          	bltu	a5,a4,800023c8 <__udivmoddi4+0x230>
80002330:	00170713          	addi	a4,a4,1
80002334:	02000793          	li	a5,32
80002338:	00090e93          	mv	t4,s2
8000233c:	14f70863          	beq	a4,a5,8000248c <__udivmoddi4+0x2f4>
80002340:	40e786b3          	sub	a3,a5,a4
80002344:	00e95633          	srl	a2,s2,a4
80002348:	00d995b3          	sll	a1,s3,a3
8000234c:	00e9d7b3          	srl	a5,s3,a4
80002350:	00d91eb3          	sll	t4,s2,a3
80002354:	00c5e433          	or	s0,a1,a2
80002358:	00000493          	li	s1,0
8000235c:	f1dff06f          	j	80002278 <__udivmoddi4+0xe0>
80002360:	06070663          	beqz	a4,800023cc <__udivmoddi4+0x234>
80002364:	00aa2023          	sw	a0,0(s4)
80002368:	00072223          	sw	zero,4(a4)
8000236c:	00000513          	li	a0,0
80002370:	00000593          	li	a1,0
80002374:	e79ff06f          	j	800021ec <__udivmoddi4+0x54>
80002378:	fff60793          	addi	a5,a2,-1
8000237c:	00c7f733          	and	a4,a5,a2
80002380:	04071c63          	bnez	a4,800023d8 <__udivmoddi4+0x240>
80002384:	000a0863          	beqz	s4,80002394 <__udivmoddi4+0x1fc>
80002388:	00a7f7b3          	and	a5,a5,a0
8000238c:	00fa2023          	sw	a5,0(s4)
80002390:	000a2223          	sw	zero,4(s4)
80002394:	00100793          	li	a5,1
80002398:	0cfb0263          	beq	s6,a5,8000245c <__udivmoddi4+0x2c4>
8000239c:	000b0513          	mv	a0,s6
800023a0:	1bc000ef          	jal	ra,8000255c <__ctzsi2>
800023a4:	02000713          	li	a4,32
800023a8:	40a70733          	sub	a4,a4,a0
800023ac:	00050793          	mv	a5,a0
800023b0:	00e99733          	sll	a4,s3,a4
800023b4:	00a95933          	srl	s2,s2,a0
800023b8:	01276533          	or	a0,a4,s2
800023bc:	00f9d5b3          	srl	a1,s3,a5
800023c0:	e2dff06f          	j	800021ec <__udivmoddi4+0x54>
800023c4:	00100073          	ebreak
800023c8:	080a1063          	bnez	s4,80002448 <__udivmoddi4+0x2b0>
800023cc:	00000513          	li	a0,0
800023d0:	00000593          	li	a1,0
800023d4:	e19ff06f          	j	800021ec <__udivmoddi4+0x54>
800023d8:	00060513          	mv	a0,a2
800023dc:	00068493          	mv	s1,a3
800023e0:	0e4000ef          	jal	ra,800024c4 <__clzsi2>
800023e4:	00050993          	mv	s3,a0
800023e8:	00040513          	mv	a0,s0
800023ec:	0d8000ef          	jal	ra,800024c4 <__clzsi2>
800023f0:	40a98533          	sub	a0,s3,a0
800023f4:	02150713          	addi	a4,a0,33
800023f8:	02000693          	li	a3,32
800023fc:	00090e93          	mv	t4,s2
80002400:	00000793          	li	a5,0
80002404:	e6d70ae3          	beq	a4,a3,80002278 <__udivmoddi4+0xe0>
80002408:	01f00613          	li	a2,31
8000240c:	08e66663          	bltu	a2,a4,80002498 <__udivmoddi4+0x300>
80002410:	40e686b3          	sub	a3,a3,a4
80002414:	00e95633          	srl	a2,s2,a4
80002418:	00d415b3          	sll	a1,s0,a3
8000241c:	00e457b3          	srl	a5,s0,a4
80002420:	00d91eb3          	sll	t4,s2,a3
80002424:	00c5e433          	or	s0,a1,a2
80002428:	e51ff06f          	j	80002278 <__udivmoddi4+0xe0>
8000242c:	00070863          	beqz	a4,8000243c <__udivmoddi4+0x2a4>
80002430:	02d5f7b3          	remu	a5,a1,a3
80002434:	00072023          	sw	zero,0(a4)
80002438:	00f72223          	sw	a5,4(a4)
8000243c:	0359d533          	divu	a0,s3,s5
80002440:	00000593          	li	a1,0
80002444:	da9ff06f          	j	800021ec <__udivmoddi4+0x54>
80002448:	012a2023          	sw	s2,0(s4)
8000244c:	013a2223          	sw	s3,4(s4)
80002450:	00000513          	li	a0,0
80002454:	00000593          	li	a1,0
80002458:	d95ff06f          	j	800021ec <__udivmoddi4+0x54>
8000245c:	00090513          	mv	a0,s2
80002460:	00098593          	mv	a1,s3
80002464:	d89ff06f          	j	800021ec <__udivmoddi4+0x54>
80002468:	000a0863          	beqz	s4,80002478 <__udivmoddi4+0x2e0>
8000246c:	00b7f7b3          	and	a5,a5,a1
80002470:	00aa2023          	sw	a0,0(s4)
80002474:	00fa2223          	sw	a5,4(s4)
80002478:	000a8513          	mv	a0,s5
8000247c:	0e0000ef          	jal	ra,8000255c <__ctzsi2>
80002480:	00a9d533          	srl	a0,s3,a0
80002484:	00000593          	li	a1,0
80002488:	d65ff06f          	j	800021ec <__udivmoddi4+0x54>
8000248c:	00000793          	li	a5,0
80002490:	00000493          	li	s1,0
80002494:	de5ff06f          	j	80002278 <__udivmoddi4+0xe0>
80002498:	04000693          	li	a3,64
8000249c:	40e686b3          	sub	a3,a3,a4
800024a0:	00150513          	addi	a0,a0,1
800024a4:	00d914b3          	sll	s1,s2,a3
800024a8:	00a95eb3          	srl	t4,s2,a0
800024ac:	00d416b3          	sll	a3,s0,a3
800024b0:	01d6eeb3          	or	t4,a3,t4
800024b4:	00a45433          	srl	s0,s0,a0
800024b8:	dc1ff06f          	j	80002278 <__udivmoddi4+0xe0>

800024bc <__udivdi3>:
800024bc:	00000713          	li	a4,0
800024c0:	cd9ff06f          	j	80002198 <__udivmoddi4>

800024c4 <__clzsi2>:
800024c4:	ffff05b7          	lui	a1,0xffff0
800024c8:	00b575b3          	and	a1,a0,a1
800024cc:	0015b593          	seqz	a1,a1
800024d0:	00459593          	slli	a1,a1,0x4
800024d4:	01000793          	li	a5,16
800024d8:	40b787b3          	sub	a5,a5,a1
800024dc:	00010737          	lui	a4,0x10
800024e0:	00f557b3          	srl	a5,a0,a5
800024e4:	f0070713          	addi	a4,a4,-256 # ff00 <_entry_offset+0xff00>
800024e8:	00e7f733          	and	a4,a5,a4
800024ec:	00173713          	seqz	a4,a4
800024f0:	00371713          	slli	a4,a4,0x3
800024f4:	00800693          	li	a3,8
800024f8:	40e686b3          	sub	a3,a3,a4
800024fc:	00d7d7b3          	srl	a5,a5,a3
80002500:	0f07f613          	andi	a2,a5,240
80002504:	00163613          	seqz	a2,a2
80002508:	00261613          	slli	a2,a2,0x2
8000250c:	00400693          	li	a3,4
80002510:	40c686b3          	sub	a3,a3,a2
80002514:	00d7d7b3          	srl	a5,a5,a3
80002518:	00c7f693          	andi	a3,a5,12
8000251c:	0016b693          	seqz	a3,a3
80002520:	00169693          	slli	a3,a3,0x1
80002524:	00200813          	li	a6,2
80002528:	40d80533          	sub	a0,a6,a3
8000252c:	00a7d7b3          	srl	a5,a5,a0
80002530:	0017d513          	srli	a0,a5,0x1
80002534:	00154513          	xori	a0,a0,1
80002538:	00b70733          	add	a4,a4,a1
8000253c:	00157513          	andi	a0,a0,1
80002540:	00e60633          	add	a2,a2,a4
80002544:	40f80833          	sub	a6,a6,a5
80002548:	40a00733          	neg	a4,a0
8000254c:	01077733          	and	a4,a4,a6
80002550:	00c68533          	add	a0,a3,a2
80002554:	00a70533          	add	a0,a4,a0
80002558:	00008067          	ret

8000255c <__ctzsi2>:
8000255c:	01051593          	slli	a1,a0,0x10
80002560:	0105d593          	srli	a1,a1,0x10
80002564:	0015b593          	seqz	a1,a1
80002568:	00459593          	slli	a1,a1,0x4
8000256c:	00b557b3          	srl	a5,a0,a1
80002570:	0ff7f613          	zext.b	a2,a5
80002574:	00163613          	seqz	a2,a2
80002578:	00361613          	slli	a2,a2,0x3
8000257c:	00c7d7b3          	srl	a5,a5,a2
80002580:	00f7f693          	andi	a3,a5,15
80002584:	0016b693          	seqz	a3,a3
80002588:	00269693          	slli	a3,a3,0x2
8000258c:	00d7d7b3          	srl	a5,a5,a3
80002590:	0037f713          	andi	a4,a5,3
80002594:	00173713          	seqz	a4,a4
80002598:	00171713          	slli	a4,a4,0x1
8000259c:	00e7d7b3          	srl	a5,a5,a4
800025a0:	0017d513          	srli	a0,a5,0x1
800025a4:	00b60633          	add	a2,a2,a1
800025a8:	0017f793          	andi	a5,a5,1
800025ac:	00157593          	andi	a1,a0,1
800025b0:	00200513          	li	a0,2
800025b4:	00c686b3          	add	a3,a3,a2
800025b8:	40b50533          	sub	a0,a0,a1
800025bc:	fff78793          	addi	a5,a5,-1
800025c0:	00f57533          	and	a0,a0,a5
800025c4:	00d70733          	add	a4,a4,a3
800025c8:	00e50533          	add	a0,a0,a4
800025cc:	00008067          	ret
